RMAIN - MAIN PROGRAM FOR REMIND	MACRO 12.5-46.0 21:51  2-MAR-81 PAGE 1
RPARAM.MAC	12-APR-78 19:35	

     1			000000	00100	FL=0
     2			000001	00200	T1=1
     3			000002	00300	T2=2
     4			000003	00400	T3=3
     5			000004	00500	T4=4
     6			000005	00600	t5=5
     7
     8			000017	00800	P=17
     9			000016	00900	P2=16
    10			000015	01000	CS=15		;CHARACTER FLAGS
    11			000014	01100	C=14		;CHARACTER
    12			000013	01200	BUF=13
    13			000012	01300	BLK=12
    14			000011	01400	DPTR=11		;POINTER TO DATE STRING
    15			000010	01500	DCNT=10		;NUMBER OF CHRS LEFT TO PUT IN DATE STRING
    16			000007	01600	ITEM=7	;BACK FROM THE SCANNER
    17			000006	01700	CODE=6		;ALSO BACK FROM THE SCANER
    18
    19				01900	;FLAGS IN F (RH)
    20
    21			000001	02100	IDF==1		;IDENT SEEN BY SCANNER
    22			000002	02200	NUMF==2		;NUMBER SEEN BY SCANNER
    23			000004	02300	FNEED1==4	;FLAG FOR DATES, A DATE NEEDED
    24			000010	02400	FEXCPT==10	;FLAG FOR DATES, IN EXCEPT
    25			000020	02500	FREF==20	;FLAG FOR DATES, READ A REFERENCE (ETC.) DATE
    26			000040	02600	FRDATE==40	;FLAG FOR DATES, REAL DATE (USED BY REF)
    27			000100	02700	FBEF==100	;IN A BEFORE OR AFTER STREAM
    28			000200	02800	FREF2==200	;FLAG FOR BETWEEN ( IS PERMITTED ELSE LIKE FREF
    29			000400	02900	circ==400	;flag for circuit built (alarm)
    30
    31			000001	03100	TTY==1
    32			000002	03200	REM==2
    33			000003	03300	MAL==3		;MAILBOX
    34
    35				03500	;FLAGS IN LH OF COMMAND TABLE
    36
    37			400000	03700	DIPRS==400000	;DISPATCH ADDRESS PRESENT
    38			200000	03800	DSPIND==200000		;DISPATCH INCREMENT PRESENT
    39			100000	03900	RSTERR==100000		;RESET ERROR TABLE
    40			040000	04000	SETPRI==040000		;"PRIMARY" COMMAND
    41			020000	04100	STPSCN==020000		;DISPATCH NOW, END OF COMMAND
    42
    43			000040	04300	PDLSZ==40
    44			000020	04400	PDLSZ2==20
    45
    46
    47			000177	04700	MALHSH==177	;HASH FOR LOOKING AT MAILBOX
    48
    49			000156	04900	DATSIZ==^D110	;SIZE OF DATE STORAGE (MAX)
RMAIN - MAIN PROGRAM FOR REMIND	MACRO 12.5-46.0 21:51  2-MAR-81 PAGE 2
RPARAM.MAC	12-APR-78 19:35	

    50				00100	;DEFINITION OF MACRO TO GENERATE THE FIRST 3 WORDS OF SIXBIT
    51
    52				00300		DEFINE WRD(A,B)
    53				00400	<ZZ==0
    54				00500	ZZ1==0
    55				00600		IRPC A,<ZZ=ZZ+1
    56				00700	IFG ZZ-B,<IFLE ZZ-B-6,<ZZ1==ZZ1_6+''A''>>>
    57				00800	IFL ZZ-B-6,<ZZ1==ZZ1_<<B+6-ZZ>*6>>
    58				00900		ZZ1>
    59				01000		DEFINE TABLE (A)
    60				01100	<	DEFINE X(B,C,D,E)
    61				01200	<	WRD (B,0)>
    62				01300		A
    63				01400		DEFINE X(B,C,D,E)
    64				01500	<	WRD (B,6)>
    65				01600		A
    66				01700		DEFINE X(B,C,D,E)
    67				01800	<	WRD (B,^D12)>
    68				01900		A>
RMAIN - MAIN PROGRAM FOR REMIND	MACRO 12.5-46.0 21:51  2-MAR-81 PAGE 1
RMAIN.MAC	19-JUN-78 15:02	

    69				00100	TITLE RMAIN - MAIN PROGRAM FOR REMIND
    70
    71				00300	;IN RIO
    72				00400	EXTERNAL BUFINI,OPNREM
    73				00500	;IN RSCAN
    74				00600	EXTERNAL  NMSC,SCAN,SCANI,TIBUF,TERMF
    75				00700	;IN RCOM
    76				00800	EXTERNAL OUTSXL,PDL,PDL2
    77				00900	;IN RRMD
    78				01000	EXTERNAL CHGFIL,CHGREM,DELFIL,DELREM,INSFIL,INSREM
    79				01100	EXTERNAL LSTFIL,LSTREM
    80				01200	;IN RMAL
    81				01300	EXTERNAL CHGMAL,DELMAL,INSMAL,LSTMAL
    82				01400	;IN RCMAL
    83				01500	EXTERNAL PRMAIL
    84				01600	;IN RDATE
    85				01700	EXTERNAL DTEST,INSDAT,DATDIS,LADTS,DELDAT,LPRTDY,LPRDAT
    86				01800	EXTERNAL DATCNL,DATUNC,LIDAT,CHGDAT,DATNXT
    87
    88				02000	INTERNAL CMD
    89
    90				02200	INTERNAL JOBVER
    91			000137	02300	JOBVER==137
    92	000137			02400		LOC JOBVER
    93	000137	000000	000001	02500		1
    94	000000'			02600		RELOC
RMAIN - MAIN PROGRAM FOR REMIND	MACRO 12.5-46.0 21:51  2-MAR-81 PAGE 2
RMAIN.MAC	19-JUN-78 15:02	

    95				00010	COMMENT &
    96				00020	FORMAT OF BLOCKS
    97
    98				00040	FILE NAME BLOCK
    99
   100				00060	WORD 3+N*7 NUMBER OF BLOCK FOR REMINDERS FOR THIS FILE.
   101				00070		0 INDICATES END OF INFORMATION IN THIS BLOCK.
   102				00080	WORD 4+7*N-11+7*N: ASCIZ FOR FILE NAME
   103
   104				00100	WORD 2: NEXT FILE NAME BLOCK. 0=END OF LIST
   105
   106				00120	WORD 0:	FIRST WORD OF FREE SPACE THIS BLOCK
   107
   108				00140	BLOCK 0 IS SPECIAL
   109				00150	WORD 1: FIRST FREE BLOCK IN REMIND FILE
   110
   111				00170	WORD 177: FIRST BLOCK IN MAIL LIST
   112				00180	WORD 176: FIRST BLOCK IN DATE LIST
   113				00190	WORD 175: FIRST BLOCK IN NAME LIST
   114
   115				00210	REMINDER BLOCKS
   116
   117				00230	WORD 0: NEXT BLOCK OF REMINDERS FOR THIS FILE 0=END
   118
   119				00250	WORD 1+N*14-14+N*14 ASCIZ FOR THE REMINDER
   120				00260		IF WORD 1+N*13=0 THEN NO REMINDER IN THIS SLOT
   121
   122				00280	MAIL BLOCKS
   123
   124				00300	WORD 0: NEXT BLOCK OF MAIL ENTRIES 0=END
   125
   126				00320	WORDS 1+3*N-3+3*N ASCIZ FOR USER NAME
   127
   128				00340	DATE BLOCKS
   129
   130				00360	WORD 0: NEXT BLOCK OF DATE ENTERIES 0=END
   131
   132				00380	WORD 1+N*19 COUNT OF NUMBER OF WORDS THIS ENTRY (MULTIPLE OF 19)
   133				00390	WORD 2+N*19 DATE ENTERED (USED FOR ORIGINAL REFERENCE DATE)
   134				00400	WORD 3+N*19 NUMBER OF DAYS OF WARNING
   135				00410	WORD 4+N*19 TIME (-1=NONE)
   136				00420	WORD 5+N*19 CANCEL DATE (CANCELED UNTIL AT LEAST THAT DATE)
   137				00430	WORD 6+N*19-17+N*19 TEXT
   138				00440	WORD 18+N*19 -? DATE BYTES (SEE RCDATE)
   139
   140				00460		A DATE MAY OCCUPY MORE THAN ONE 19 WORD BLOCK
   141				00470	THE COUNT IS USED TO DETERMIND WHICH BLOCKS ARE OCCUPIED.
   142				00480	ALL UNUSED BLOCKS HAVE A COUNT OF 0 OR 19. AN UNUSED BLOCK
   143				00490	HAS WORD 18+N*19 (FIRST WORD OF DATE INFO) =0.
   144				00500	&
RMAIN - MAIN PROGRAM FOR REMIND	MACRO 12.5-46.0 21:51  2-MAR-81 PAGE 3
RMAIN.MAC	19-JUN-78 15:02	

   145	000000'	047000	000000	00010	STPT:	RESET
   146	000001'	200740	000416'	00020		MOVE P,[IOWD PDLSZ,PDL]
   147	000002'	200700	000417'	00030		MOVE P2,[IOWD PDLSZ2,PDL2]
   148	000003'	041040	000000	00040		INIT TTY,0
   149	000004'	646471	000000	00050		SIXBIT /TTY/
   150	000005'	000000	000000*	00060		TIBUF
   151	000006'	047000	000012	00070		EXIT
   152	000007'	260740	000000*	00080		PUSHJ P,BUFINI
   153	000010'	260740	000000*	00090		PUSHJ P,OPNREM
   154	000011'	200740	000416'	00100	CMD:	MOVE P,[IOWD PDLSZ,PDL]
   155	000012'	200700	000417'	00110		MOVE P2,[IOWD PDLSZ2,PDL2]
   156	000013'	051540	000000	00120		SKPINC
   157	000014'	255000	000000	00130		JFCL		;JUST USED TO CLEAR ^O
   158				00140		OUTSTR [ASCIZ /
   159	000015'	051140	000420'	00150	: /]
   160	000016'	260740	000000*	00160		PUSHJ P,SCANI	;START THE SCAN
   161	000017'	603640	000000*	00170		TLNE CS,TERMF
   162	000020'	254000	000011'	00180		JRST CMD
   163	000021'	200040	000157'	00190		MOVE T1,MAINSC
   164	000022'	202040	000412'	00200		MOVEM T1,CURTBL#
   165	000023'	202040	000413'	00210		MOVEM T1,ERRTBL#
   166	000024'	402000	000414'	00220		SETZM ORGCMD#
   167	000025'	402000	000415'	00230		SETZM PRIDSP#
   168	000026'	260740	000000*	00240	CMDSCL:	PUSHJ P,NMSC	;FIND A MATCH FOR THIS COMMAND
   169	000027'	254000	000055'	00250		 JRST ERROR
   170	000030'	564100	000412'	00260		HLRO T2,CURTBL	;GET TABLE LENGTH
   171	000031'	213000	000002	00270		MOVNS T2
   172	000032'	221100	000003	00280		IMULI T2,3	;GET PAST OTHER WORDS OF TEXT
   173	000033'	270100	000001	00290		ADD T2,T1	;POINT TO ACTION WORDS
   174	000034'	200102	000000	00300		MOVE T2,(T2)
   175	000035'	603100	400000	00310		TLNE T2,DIPRS
   176	000036'	552100	000415'	00320		HRRZM T2,PRIDSP
   177	000037'	603100	200000	00330		TLNE T2,DSPIND
   178				00340		JRST	[ADD T2,PRIDSP
   179				00350			HRRZM T2,PRIDSP
   180	000040'	254000	000421'	00360			JRST .+1]
   181	000041'	500040	000412'	00370		HLL T1,CURTBL
   182	000042'	603100	040000	00380		TLNE T2,SETPRI
   183	000043'	202040	000414'	00390		MOVEM T1,ORGCMD
   184	000044'	135040	000424'	00400		LDB T1,[POINT 4,T2,17]	;GET NEXT TABLE ADDRESS
   185	000045'	200041	000157'	00410		MOVE T1,MAINSC(T1)
   186	000046'	202040	000412'	00420		MOVEM T1,CURTBL
   187	000047'	603100	100000	00430		TLNE T2,RSTERR
   188				00440		JRST	[MOVE T3,CURTBL	;RESET ERROR TABLE
   189				00450			MOVEM T3,ERRTBL
   190	000050'	254000	000425'	00460			JRST .+1]
   191	000051'	603100	020000	00470		TLNE T2,STPSCN
   192	000052'	254020	000415'	00480		JRST @PRIDSP
   193	000053'	260740	000000*	00490		PUSHJ P,SCAN
   194	000054'	254000	000026'	00500		JRST CMDSCL		;MORE COMMANDS
RMAIN - MAIN PROGRAM FOR REMIND	MACRO 12.5-46.0 21:51  2-MAR-81 PAGE 4
RMAIN.MAC	19-JUN-78 15:02	

   195				00010	ERROR:	OUTSTR [ASCIZ /
   196	000055'	051140	000430'	00020	Illegal /]
   197	000056'	336140	000414'	00030		SKIPN T3,ORGCMD		;IS THERE AN ORIGINAL COMMAND
   198	000057'	254000	000062'	00040		JRST MCMD		;NO
   199	000060'	260740	000000*	00050		PUSHJ P,OUTSXL
   200	000061'	051140	000433'	00060		OUTSTR [ASCIZ / /]
   201				00070	MCMD:	OUTSTR [ASCIZ /command. Op are:
   202	000062'	051140	000434'	00080	/]
   203	000063'	200140	000413'	00090		MOVE T3,ERRTBL
   204	000064'	261700	000003	00100		PUSH P2,T3
   205	000065'	261700	000004	00110		PUSH P2,T4
   206	000066'	261700	000441'	00120		PUSH P2,[ERR0]
   207	000067'	260740	000442'	00130		PUSHJ P,[POPJ P2,]
   208	000070'	254000	000067'	00140		JRST .-1		;MORE TO GO
   209	000071'	274700	000443'	00150		SUB P2,[XWD 3,3]
   210	000072'	254000	000011'	00160		JRST CMD		;TRY AGAIN
   211
   212	000073'	261740	000003	00180	ERR0:	PUSH P,T3
   213	000074'	261740	000004	00190		PUSH P,T4
   214	000075'	262700	000004	00200		POP P2,T4
   215	000076'	262700	000003	00210		POP P2,T3
   216	000077'	564200	000003	00220		HLRO T4,T3		;GET OFFSET FOR ACTION TABLE
   217	000100'	213000	000004	00230		MOVNS T4
   218	000101'	221200	000003	00240		IMULI T4,3
   219	000102'	500200	000003	00250		HLL T4,T3	;SAVE COUNT
   220	000103'	261740	000003	00260	ERR1:	PUSH P,T3
   221	000104'	500140	000004	00270		HLL T3,T4	;RESTORE ORIGINAL COUNT
   222	000105'	260740	000060*	00280		PUSHJ P,OUTSXL		;PRINT COMMAND
   223	000106'	262740	000003	00290		POP P,T3
   224	000107'	200100	000003	00300		MOVE T2,T3
   225	000110'	270100	000004	00310		ADD T2,T4
   226	000111'	200102	000000	00320		MOVE T2,(T2)
   227	000112'	607100	120000	00330		TLNN T2,STPSCN!RSTERR		;AT END?
   228	000113'	254000	000131'	00340		JRST MORTAB		;NO
   229				00350		OUTSTR [ASCIZ /
   230	000114'	051140	000444'	00360	/]
   231	000115'	253140	000117'	00370	ERR2:	AOBJN T3,.+2		;MORE IN COMMAND?
   232	000116'	350017	777776	00380		AOS -2(P)		;NO
   233	000117'	261700	000003	00390		PUSH P2,T3
   234	000120'	261700	000004	00400		PUSH P2,T4
   235	000121'	262740	000004	00410		POP P,T4
   236	000122'	262740	000003	00420		POP P,T3
   237	000123'	260700	000445'	00430		PUSHJ P2,[POPJ P,]
   238	000124'	261740	000003	00440		PUSH P,T3
   239	000125'	261740	000004	00450		PUSH P,T4
   240	000126'	262700	000004	00460		POP P2,T4
   241	000127'	262700	000003	00470		POP P2,T3
   242	000130'	254000	000103'	00480		JRST ERR1		;GO PRINT MORE
RMAIN - MAIN PROGRAM FOR REMIND	MACRO 12.5-46.0 21:51  2-MAR-81 PAGE 5
RMAIN.MAC	19-JUN-78 15:02	

   243	000131'	051140	000433'	00010	MORTAB:	OUTSTR [ASCIZ / /]
   244	000132'	135100	000424'	00020		LDB T2,[POINT 4,T2,17]
   245	000133'	261702	000157'	00030		PUSH P2,MAINSC(T2)		;GET NEXT TABLE
   246	000134'	261700	000004	00040		PUSH P2,T4
   247	000135'	261700	000441'	00050		PUSH P2,[ERR0]
   248	000136'	260740	000442'	00060	RECAL:	PUSHJ P,[POPJ P2,]
   249	000137'	254000	000142'	00070		 JRST PRNTAGN		;PRINT THIS ONE AGAIN
   250	000140'	274700	000443'	00080		SUB P2,[XWD 3,3]	;DONE WITH LOWER LEVEL
   251	000141'	254000	000115'	00090		JRST ERR2
   252
   253	000142'	261700	000003	00110	PRNTAGN:	PUSH P2,T3
   254	000143'	261700	000004	00120		PUSH P2,T4
   255	000144'	262740	000004	00130		POP P,T4
   256	000145'	262740	000003	00140		POP P,T3
   257	000146'	260700	000445'	00150		PUSHJ P2,[POPJ P,]
   258	000147'	261740	000003	00160		PUSH P,T3
   259	000150'	261740	000004	00170		PUSH P,T4
   260	000151'	262700	000004	00180		POP P2,T4
   261	000152'	262700	000003	00190		POP P2,T3
   262	000153'	200103	000000	00200		MOVE T2,(T3)
   263	000154'	260740	000105*	00210		PUSHJ P,OUTSXL
   264	000155'	051140	000433'	00220		OUTSTR [ASCIZ / /]
   265	000156'	254000	000136'	00230		JRST RECAL
RMAIN - MAIN PROGRAM FOR REMIND	MACRO 12.5-46.0 21:51  2-MAR-81 PAGE 6
RMAIN.MAC	19-JUN-78 15:02	

   266				00010		DEFINE CMD0
   267				00020	<X INSERT,INSERT,1,DIPRS!SETPRI!RSTERR
   268				00030	X DELETE,DELETE,1,DIPRS!SETPRI!RSTERR
   269				00040	X LIST,PRINT,2,DIPRS!SETPRI!RSTERR
   270				00050	X PRINT,PRINT,2,DIPRS!SETPRI!RSTERR
   271				00060	X QUIT,QUIT,0,DIPRS!SETPRI!STPSCN
   272				00070	X NEXT,NEXT,0,DIPRS!SETPRI!STPSCN
   273				00080	X CHANGE,CHANG,1,DIPRS!SETPRI!RSTERR
   274				00090	X MAIL,MAIL,0,DIPRS!SETPRI!STPSCN
   275				00100	X CANCEL,CANCL,0,DIPRS!SETPRI!STPSCN
   276				00110	X UNCANCEL,UCANCL,0,DIPRS!SETPRI!STPSCN
   277				00120	X TEST,TEST,0,DIPRS!SETPRI!STPSCN
   278				00130	X DISPLAY,DISP,0,DIPRS!SETPRI!STPSCN
   279				00140	>
   280
   281				00160		DEFINE CMD1
   282				00170	<X DATE,0,0,DSPIND!STPSCN
   283				00180	X REMINDER,1,0,DSPIND!STPSCN
   284				00190	X NAME,2,0,DSPIND!STPSCN
   285				00200	X FILE,3,0,DSPIND!STPSCN
   286				00210	X MAIL,4,0,DSPIND!STPSCN
   287				00220	>
   288
   289				00240		DEFINE CMD2
   290				00250	<X DATE,0,0,DSPIND!STPSCN
   291				00260	X REMINDER,1,0,DSPIND!STPSCN
   292				00270	X NAME,2,0,DSPIND!STPSCN
   293				00280	X TODAY,3,0,DSPIND!STPSCN
   294				00290	X FILES,4,0,DSPIND!STPSCN
   295				00300	X MAIL,5,0,DSPIND!STPSCN
   296				00310	X INDIVIDUAL,6,4,DSPIND
   297				00320	X ALL,7,3,DSPIND
   298				00330	>
   299
   300				00350		DEFINE CMD3
   301				00360	<X DATES,0,0,DSPIND!STPSCN
   302				00370	X NAMES,1,0,DSPIND!STPSCN
   303				00380	X FILES,2,0,DSPIND!STPSCN
   304				00390	>
   305
   306				00410		DEFINE CMD4
   307				00420	<X DATE,0,0,DSPIND!STPSCN
   308				00430	>
   309
   310				00450		DEFINE CMDR(N)
   311				00460	<ZZ==0
   312				00470		DEFINE X(A,B,C,D)
   313				00480	<ZZ==ZZ+1>
   314				00490		CMD'N
   315				00500		XWD -ZZ,CMDTB'N
   316				00510	>
   317
   318				00530		DEFINE CMDR1(N)
RMAIN - MAIN PROGRAM FOR REMIND	MACRO 12.5-46.0 21:51  2-MAR-81 PAGE 6-2
RMAIN.MAC	19-JUN-78 15:02	

   319				00540	<	TABLE (CMD'N)
   320				00550		DEFINE X(A,B,C,D)
   321				00560	<	XWD C+D,B>
   322				00570		CMD'N
   323				00580	>
   324
   325				00600		DEFINE CMDIT(N)
   326				00610	<IRP N <CMDR (N)>
   327				00620	IRP N <
   328				00630	CMDTB'N:	CMDR1(N)>
   329				00640	>
   330
   331	000157'			00660	MAINSC:	CMDIT <0,1,2,3,4>^IRP 
   332	000157'	777764	000164'			XWD -ZZ,CMDTB0
   333	000160'	777773	000244'			XWD -ZZ,CMDTB1
   334	000161'	777770	000270'			XWD -ZZ,CMDTB2
   335	000162'	777775	000330'			XWD -ZZ,CMDTB3
   336	000163'	777777	000344'			XWD -ZZ,CMDTB4
   337	000164'	515663	456264			ZZ1^^
   338	000165'	444554	456445			ZZ1^^
   339	000166'	545163	640000			ZZ1^^
   340	000167'	606251	566400			ZZ1^^
   341	000170'	616551	640000			ZZ1^^
   342	000171'	564570	640000			ZZ1^^
   343	000172'	435041	564745			ZZ1^^
   344	000173'	554151	540000			ZZ1^^
   345	000174'	434156	434554			ZZ1^^
   346	000175'	655643	415643			ZZ1^^
   347	000176'	644563	640000			ZZ1^^
   348	000177'	445163	605441			ZZ1^^
   349	000200'	000000	000000			ZZ1^^
   350	000201'	000000	000000			ZZ1^^
   351	000202'	000000	000000			ZZ1^^
   352	000203'	000000	000000			ZZ1^^
   353	000204'	000000	000000			ZZ1^^
   354	000205'	000000	000000			ZZ1^^
   355	000206'	000000	000000			ZZ1^^
   356	000207'	000000	000000			ZZ1^^
   357	000210'	000000	000000			ZZ1^^
   358	000211'	455400	000000			ZZ1^^
   359	000212'	000000	000000			ZZ1^^
   360	000213'	710000	000000			ZZ1^^
   361	000214'	000000	000000			ZZ1^^
   362	000215'	000000	000000			ZZ1^^
   363	000216'	000000	000000			ZZ1^^
   364	000217'	000000	000000			ZZ1^^
   365	000220'	000000	000000			ZZ1^^
   366	000221'	000000	000000			ZZ1^^
   367	000222'	000000	000000			ZZ1^^
   368	000223'	000000	000000			ZZ1^^
   369	000224'	000000	000000			ZZ1^^
   370	000225'	000000	000000			ZZ1^^
   371	000226'	000000	000000			ZZ1^^
RMAIN - MAIN PROGRAM FOR REMIND	MACRO 12.5-46.0 21:51  2-MAR-81 PAGE 6-3
RMAIN.MAC	19-JUN-78 15:02	

   372	000227'	000000	000000			ZZ1^^
   373	000230'	540001	000350'			CMD0^X INSERT,INSERT,1,DIPRS!SETPRI!RSTERR^	XWD 1+DIPRS!SETPRI!RSTERR,INSERT^
   374	000231'	540001	000355'		X DELETE,DELETE,1,DIPRS!SETPRI!RSTERR^	XWD 1+DIPRS!SETPRI!RSTERR,DELETE^
   375	000232'	540002	000362'		X LIST,PRINT,2,DIPRS!SETPRI!RSTERR^	XWD 2+DIPRS!SETPRI!RSTERR,PRINT^
   376	000233'	540002	000362'		X PRINT,PRINT,2,DIPRS!SETPRI!RSTERR^	XWD 2+DIPRS!SETPRI!RSTERR,PRINT^
   377	000234'	460000	000374'		X QUIT,QUIT,0,DIPRS!SETPRI!STPSCN^	XWD 0+DIPRS!SETPRI!STPSCN,QUIT^
   378	000235'	460000	000400'		X NEXT,NEXT,0,DIPRS!SETPRI!STPSCN^	XWD 0+DIPRS!SETPRI!STPSCN,NEXT^
   379	000236'	540001	000403'		X CHANGE,CHANG,1,DIPRS!SETPRI!RSTERR^	XWD 1+DIPRS!SETPRI!RSTERR,CHANG^
   380	000237'	460000	000375'		X MAIL,MAIL,0,DIPRS!SETPRI!STPSCN^	XWD 0+DIPRS!SETPRI!STPSCN,MAIL^
   381	000240'	460000	000401'		X CANCEL,CANCL,0,DIPRS!SETPRI!STPSCN^	XWD 0+DIPRS!SETPRI!STPSCN,CANCL^
   382	000241'	460000	000402'		X UNCANCEL,UCANCL,0,DIPRS!SETPRI!STPSCN^	XWD 0+DIPRS!SETPRI!STPSCN,UCANCL^
   383	000242'	460000	000376'		X TEST,TEST,0,DIPRS!SETPRI!STPSCN^	XWD 0+DIPRS!SETPRI!STPSCN,TEST^
   384	000243'	460000	000377'		X DISPLAY,DISP,0,DIPRS!SETPRI!STPSCN^	XWD 0+DIPRS!SETPRI!STPSCN,DISP^
   385	000244'	444164	450000			ZZ1^^
   386	000245'	624555	515644			ZZ1^^
   387	000246'	564155	450000			ZZ1^^
   388	000247'	465154	450000			ZZ1^^
   389	000250'	554151	540000			ZZ1^^
   390	000251'	000000	000000			ZZ1^^
   391	000252'	456200	000000			ZZ1^^
   392	000253'	000000	000000			ZZ1^^
   393	000254'	000000	000000			ZZ1^^
   394	000255'	000000	000000			ZZ1^^
   395	000256'	000000	000000			ZZ1^^
   396	000257'	000000	000000			ZZ1^^
   397	000260'	000000	000000			ZZ1^^
   398	000261'	000000	000000			ZZ1^^
   399	000262'	000000	000000			ZZ1^^
   400	000263'	220000	000000			CMD1^X DATE,0,0,DSPIND!STPSCN^	XWD 0+DSPIND!STPSCN,0^
   401	000264'	220000	000001		X REMINDER,1,0,DSPIND!STPSCN^	XWD 0+DSPIND!STPSCN,1^
   402	000265'	220000	000002		X NAME,2,0,DSPIND!STPSCN^	XWD 0+DSPIND!STPSCN,2^
   403	000266'	220000	000003		X FILE,3,0,DSPIND!STPSCN^	XWD 0+DSPIND!STPSCN,3^
   404	000267'	220000	000004		X MAIL,4,0,DSPIND!STPSCN^	XWD 0+DSPIND!STPSCN,4^
   405	000270'	444164	450000			ZZ1^^
   406	000271'	624555	515644			ZZ1^^
   407	000272'	564155	450000			ZZ1^^
   408	000273'	645744	417100			ZZ1^^
   409	000274'	465154	456300			ZZ1^^
   410	000275'	554151	540000			ZZ1^^
   411	000276'	515644	516651			ZZ1^^
   412	000277'	415454	000000			ZZ1^^
   413	000300'	000000	000000			ZZ1^^
   414	000301'	456200	000000			ZZ1^^
   415	000302'	000000	000000			ZZ1^^
   416	000303'	000000	000000			ZZ1^^
   417	000304'	000000	000000			ZZ1^^
   418	000305'	000000	000000			ZZ1^^
   419	000306'	446541	540000			ZZ1^^
   420	000307'	000000	000000			ZZ1^^
   421	000310'	000000	000000			ZZ1^^
   422	000311'	000000	000000			ZZ1^^
   423	000312'	000000	000000			ZZ1^^
   424	000313'	000000	000000			ZZ1^^
RMAIN - MAIN PROGRAM FOR REMIND	MACRO 12.5-46.0 21:51  2-MAR-81 PAGE 6-4
RMAIN.MAC	19-JUN-78 15:02	

   425	000314'	000000	000000			ZZ1^^
   426	000315'	000000	000000			ZZ1^^
   427	000316'	000000	000000			ZZ1^^
   428	000317'	000000	000000			ZZ1^^
   429	000320'	220000	000000			CMD2^X DATE,0,0,DSPIND!STPSCN^	XWD 0+DSPIND!STPSCN,0^
   430	000321'	220000	000001		X REMINDER,1,0,DSPIND!STPSCN^	XWD 0+DSPIND!STPSCN,1^
   431	000322'	220000	000002		X NAME,2,0,DSPIND!STPSCN^	XWD 0+DSPIND!STPSCN,2^
   432	000323'	220000	000003		X TODAY,3,0,DSPIND!STPSCN^	XWD 0+DSPIND!STPSCN,3^
   433	000324'	220000	000004		X FILES,4,0,DSPIND!STPSCN^	XWD 0+DSPIND!STPSCN,4^
   434	000325'	220000	000005		X MAIL,5,0,DSPIND!STPSCN^	XWD 0+DSPIND!STPSCN,5^
   435	000326'	200004	000006		X INDIVIDUAL,6,4,DSPIND^	XWD 4+DSPIND,6^
   436	000327'	200003	000007		X ALL,7,3,DSPIND^	XWD 3+DSPIND,7^
   437	000330'	444164	456300			ZZ1^^
   438	000331'	564155	456300			ZZ1^^
   439	000332'	465154	456300			ZZ1^^
   440	000333'	000000	000000			ZZ1^^
   441	000334'	000000	000000			ZZ1^^
   442	000335'	000000	000000			ZZ1^^
   443	000336'	000000	000000			ZZ1^^
   444	000337'	000000	000000			ZZ1^^
   445	000340'	000000	000000			ZZ1^^
   446	000341'	220000	000000			CMD3^X DATES,0,0,DSPIND!STPSCN^	XWD 0+DSPIND!STPSCN,0^
   447	000342'	220000	000001		X NAMES,1,0,DSPIND!STPSCN^	XWD 0+DSPIND!STPSCN,1^
   448	000343'	220000	000002		X FILES,2,0,DSPIND!STPSCN^	XWD 0+DSPIND!STPSCN,2^
   449	000344'	444164	450000			ZZ1^^
   450	000345'	000000	000000			ZZ1^^
   451	000346'	000000	000000			ZZ1^^
   452	000347'	220000	000000			CMD4^X DATE,0,0,DSPIND!STPSCN^	XWD 0+DSPIND!STPSCN,0^
RMAIN - MAIN PROGRAM FOR REMIND	MACRO 12.5-46.0 21:51  2-MAR-81 PAGE 7
RMAIN.MAC	19-JUN-78 15:02	

   453				00010	;DISPATCH LOCATIONS
   454
   455	000350'	254000	000000*	00030	INSERT:	JRST INSDAT	;INSERT DATE
   456	000351'	254000	000000*	00040		JRST INSREM	;INSERT REMINDER
   457	000352'	254000	000410'	00050		JRST NOTIMP	;INSERT NAME
   458	000353'	254000	000000*	00060		JRST INSFIL	;INSERT FILE
   459	000354'	254000	000000*	00070		JRST INSMAL	;INSERT MAIL
   460	000355'	254000	000000*	00080	DELETE:	JRST DELDAT	;DELETE DATE
   461	000356'	254000	000000*	00090		JRST DELREM	;DETETE REMINDER
   462	000357'	254000	000410'	00100		JRST NOTIMP	;DELETE NAME
   463	000360'	254000	000000*	00110		JRST DELFIL	;DELETE FILE
   464	000361'	254000	000000*	00120		JRST DELMAL	;DELETE MAIL
   465	000362'	254000	000000*	00130	PRINT:	JRST LPRDAT	;LIST DATE
   466	000363'	254000	000000*	00140		JRST LSTREM	;LIST REMINDER
   467	000364'	254000	000410'	00150		JRST NOTIMP	;LIST NAME
   468	000365'	254000	000000*	00160		JRST LPRTDY	;LIST TODAAY
   469	000366'	254000	000000*	00170		JRST LSTFIL	;LIST FILES
   470	000367'	254000	000000*	00180		JRST LSTMAL	;LIST MAIL
   471	000370'	254000	000000*	00190		JRST LIDAT	;LIST INDIVIDUAL DATE
   472	000371'	254000	000000*	00200		JRST LADTS	;LIST ALL DATES
   473	000372'	254000	000410'	00210		JRST NOTIMP	;LIST ALL NAMES
   474	000373'	254000	000366*	00220		JRST LSTFIL	;LIST ALL FILES
   475	000374'	047040	000012	00230	QUIT:	EXIT	1,
   476	000375'	254000	000000*	00240	MAIL:	JRST PRMAIL	;PRINT MAIL WAITING INFO (MAIL)
   477	000376'	254000	000000*	00250	TEST:	JRST DTEST	;TEST A DATE EXPRESSION
   478	000377'	254000	000000*	00260	DISP:	JRST DATDIS
   479	000400'	254000	000000*	00270	NEXT:	JRST DATNXT
   480	000401'	254000	000000*	00280	CANCL:	JRST DATCNL
   481	000402'	254000	000000*	00290	UCANCL:	JRST DATUNC
   482	000403'	254000	000000*	00300	CHANG:	JRST CHGDAT	;CHANGE DATE
   483	000404'	254000	000000*	00310		JRST CHGREM	;CHANGE REMINDER
   484	000405'	254000	000410'	00320		JRST NOTIMP	;CHANGE NAME
   485	000406'	254000	000000*	00330		JRST CHGFIL	;CHANGE FILE
   486	000407'	254000	000000*	00340		JRST CHGMAL	;CHANGE MAIL
   487
   488				00360	NOTIMP:	OUTSTR [ASCIZ /
   489				00370	Command not implemented.
   490	000410'	051140	000446'	00380	/]
   491	000411'	254000	000011'	00390		JRST CMD
   492
   493			000000'	00410		END STPT
   494
NO ERRORS DETECTED
PROGRAM BREAK IS 000454
4K CORE USED
RMAIN - MAIN PROGRAM FOR REMIND	MACRO 12.5-46.0 21:51  2-MAR-81 PAGE 8
RMAIN.MAC	19-JUN-78 15:02		SYMBOL TABLE

BLK		000012		INSFIL		000353'	EXT	TERMF		000017'	EXT	
BUF		000013		INSMAL		000354'	EXT	TEST		000376'		
BUFINI		000007'	EXT	INSREM		000351'	EXT	TIBUF		000005'	EXT	
C		000014		ITEM		000007		TTY		000001	SPD	
CANCL		000401'		JOBVER		000137	SIN	UCANCL		000402'		
CHANG		000403'		LADTS		000371'	EXT	ZZ		000004	SPD	
CHGDAT		000403'	EXT	LIDAT		000370'	EXT	ZZ1		000000	SPD	
CHGFIL		000406'	EXT	LPRDAT		000362'	EXT	
CHGMAL		000407'	EXT	LPRTDY		000365'	EXT	
CHGREM		000404'	EXT	LSTFIL		000373'	EXT	
CIRC		000400	SPD	LSTMAL		000367'	EXT	
CMD		000011'	INT	LSTREM		000363'	EXT	
CMDSCL		000026'		MAIL		000375'		
CMDTB0		000164'		MAINSC		000157'		
CMDTB1		000244'		MAL		000003	SPD	
CMDTB2		000270'		MALHSH		000177	SPD	
CMDTB3		000330'		MCMD		000062'		
CMDTB4		000344'		MORTAB		000131'		
CODE		000006		NEXT		000400'		
CS		000015		NMSC		000026'	EXT	
CURTBL		000412'		NOTIMP		000410'		
DATCNL		000401'	EXT	NUMF		000002	SPD	
DATDIS		000377'	EXT	OPNREM		000010'	EXT	
DATNXT		000400'	EXT	ORGCMD		000414'		
DATSIZ		000156	SPD	OUTSTR	051140	000000		
DATUNC		000402'	EXT	OUTSXL		000154'	EXT	
DCNT		000010		P		000017		
DELDAT		000355'	EXT	P2		000016		
DELETE		000355'		PDL		000000	EXT	
DELFIL		000360'	EXT	PDL2		000000	EXT	
DELMAL		000361'	EXT	PDLSZ		000040	SPD	
DELREM		000356'	EXT	PDLSZ2		000020	SPD	
DIPRS		400000	SPD	PRIDSP		000415'		
DISP		000377'		PRINT		000362'		
DPTR		000011		PRMAIL		000375'	EXT	
DSPIND		200000	SPD	PRNTAG		000142'		
DTEST		000376'	EXT	QUIT		000374'		
ERR0		000073'		RECAL		000136'		
ERR1		000103'		REM		000002	SPD	
ERR2		000115'		RESET	047000	000000		
ERROR		000055'		RSTERR		100000	SPD	
ERRTBL		000413'		SCAN		000053'	EXT	
EXIT	047000	000012		SCANI		000016'	EXT	
FBEF		000100	SPD	SETPRI		040000	SPD	
FEXCPT		000010	SPD	SKPINC	051540	000000		
FL		000000		STPSCN		020000	SPD	
FNEED1		000004	SPD	STPT		000000'		
FRDATE		000040	SPD	T1		000001		
FREF		000020	SPD	T2		000002		
FREF2		000200	SPD	T3		000003		
IDF		000001	SPD	T4		000004		
INSDAT		000350'	EXT	T5		000005		
INSERT		000350'		

RMAIN - MAIN PROGRAM FOR REMIND	MACRO 12.5-46.0 21:51  2-MAR-81
RMAIN.MAC	19-JUN-78 15:02		Symbol cross reference

BLK	    13#
BUF	    12#
BUFINI	    72%	   152
C	    11#
CANCL	   381	   480#
CHANG	   379	   482#
CHGDAT	    86%	   482
CHGFIL	    78%	   485
CHGMAL	    81%	   486
CHGREM	    78%	   483
CIRC	    29#
CMD	    88	   154#	   162	   210	   491
CMDSCL	   168#	   194
CMDTB0	   332	   337#
CMDTB1	   333	   385#
CMDTB2	   334	   405#
CMDTB3	   335	   437#
CMDTB4	   336	   449#
CODE	    17#
CS	    10#	   161
CURTBL	   164#	   164	   170	   181	   186	   188
DATCNL	    86%	   480
DATDIS	    85%	   478
DATNXT	    86%	   479
DATSIZ	    49#
DATUNC	    86%	   481
DCNT	    15#
DELDAT	    85%	   460
DELETE	   374	   460#
DELFIL	    78%	   463
DELMAL	    81%	   464
DELREM	    78%	   461
DIPRS	    37#	   175	   373	   374	   375	   376	   377	   378	   379	   380	   381	   382	   383	   384
DISP	   384	   478#
DPTR	    14#
DSPIND	    38#	   177	   400	   401	   402	   403	   404	   429	   430	   431	   432	   433	   434	   435
	   436	   446	   447	   448	   452
DTEST	    85%	   477
ERR0	   206	   212#	   247
ERR1	   220#	   242
ERR2	   231#	   251
ERROR	   169	   195#
ERRTBL	   165#	   165	   189	   203
FBEF	    27#
FEXCPT	    24#
FL	     1#
FNEED1	    23#
FRDATE	    26#
FREF	    25#
FREF2	    28#
IDF	    21#
INSDAT	    85%	   455
INSERT	   373	   455#
RMAIN - MAIN PROGRAM FOR REMIND	MACRO 12.5-46.0 21:51  2-MAR-81
RMAIN.MAC	19-JUN-78 15:02		Symbol cross reference

INSFIL	    78%	   458
INSMAL	    81%	   459
INSREM	    78%	   456
ITEM	    16#
JOBVER	    90	    91#	    92
LADTS	    85%	   472
LIDAT	    86%	   471
LPRDAT	    85%	   465
LPRTDY	    85%	   468
LSTFIL	    79%	   469	   474
LSTMAL	    81%	   470
LSTREM	    79%	   466
MAIL	   380	   476#
MAINSC	   163	   185	   245	   331#
MAL	    33#
MALHSH	    47#
MCMD	   198	   201#
MORTAB	   228	   243#
NEXT	   378	   479#
NMSC	    74%	   168
NOTIMP	   457	   462	   467	   473	   484	   488#
NUMF	    22#
OPNREM	    72%	   153
ORGCMD	   166#	   166	   183	   197
OUTSXL	    76%	   199	   222	   263
P	     8#	   146	   152	   153	   154	   160	   168	   193	   199	   207	   212	   213	   220	   222
	   223	   232	   235	   236	   237	   238	   239	   248	   255	   256	   257	   258	   259	   263
P2	     9#	   147	   155	   204	   205	   206	   207	   209	   214	   215	   233	   234	   237	   240
	   241	   245	   246	   247	   248	   250	   253	   254	   257	   260	   261
PDL	    76%	   146	   154
PDL2	    76%	   147	   155
PDLSZ	    43#	   146	   154
PDLSZ2	    44#	   147	   155
PRIDSP	   167#	   167	   176	   178	   179	   192
PRINT	   375	   376	   465#
PRMAIL	    83%	   476
PRNTAG	   249	   253#
QUIT	   377	   475#
RECAL	   248#	   265
REM	    32#
RSTERR	    39#	   187	   227	   373	   374	   375	   376	   379
SCAN	    74%	   193
SCANI	    74%	   160
SETPRI	    40#	   182	   373	   374	   375	   376	   377	   378	   379	   380	   381	   382	   383	   384
STPSCN	    41#	   191	   227	   377	   378	   380	   381	   382	   383	   384	   400	   401	   402	   403
	   404	   429	   430	   431	   432	   433	   434	   446	   447	   448	   452
STPT	   145#	   493
T1	     2#	   163	   164	   165	   173	   181	   183	   184	   185	   186
T2	     3#	   170	   171	   172	   173	   174	   175	   176	   177	   178	   179	   182	   184	   187
	   191	   224	   225	   226	   227	   244	   245	   262
T3	     4#	   188	   189	   197	   203	   204	   212	   215	   216	   219	   220	   221	   223	   224
	   231	   233	   236	   238	   241	   253	   256	   258	   261	   262
T4	     5#	   205	   213	   214	   216	   217	   218	   219	   221	   225	   234	   235	   239	   240
RMAIN - MAIN PROGRAM FOR REMIND	MACRO 12.5-46.0 21:51  2-MAR-81
RMAIN.MAC	19-JUN-78 15:02		Symbol cross reference

	   246	   254	   255	   259	   260
T5	     6#
TERMF	    74%	   161
TEST	   383	   477#
TIBUF	    74%	   150
TTY	    31#	   148
UCANCL	   382	   481#
ZZ	   332#	   332	   333#	   333	   334#	   334	   335#	   335	   336#	   336	   337#	   337	   338#	   338
	   339#	   339	   340#	   340	   341#	   341	   342#	   342	   343#	   343	   344#	   344	   345#	   345
	   346#	   346	   347#	   347	   348#	   348	   349#	   349	   350#	   350	   351#	   351	   352#	   352
	   353#	   353	   354#	   354	   355#	   355	   356#	   356	   357#	   357	   358#	   358	   359#	   359
	   360#	   360	   361#	   361	   362#	   362	   363#	   363	   364#	   364	   365#	   365	   366#	   366
	   367#	   367	   368#	   368	   369#	   369	   370#	   370	   371#	   371	   372#	   372	   385#	   385
	   386#	   386	   387#	   387	   388#	   388	   389#	   389	   390#	   390	   391#	   391	   392#	   392
	   393#	   393	   394#	   394	   395#	   395	   396#	   396	   397#	   397	   398#	   398	   399#	   399
	   405#	   405	   406#	   406	   407#	   407	   408#	   408	   409#	   409	   410#	   410	   411#	   411
	   412#	   412	   413#	   413	   414#	   414	   415#	   415	   416#	   416	   417#	   417	   418#	   418
	   419#	   419	   420#	   420	   421#	   421	   422#	   422	   423#	   423	   424#	   424	   425#	   425
	   426#	   426	   427#	   427	   428#	   428	   437#	   437	   438#	   438	   439#	   439	   440#	   440
	   441#	   441	   442#	   442	   443#	   443	   444#	   444	   445#	   445	   449#	   449	   450#	   450
	   451#	   451
ZZ1	   337#	   337	   338#	   338	   339#	   339	   340#	   340	   341#	   341	   342#	   342	   343#	   343
	   344#	   344	   345#	   345	   346#	   346	   347#	   347	   348#	   348	   349#	   349	   350#	   350
	   351#	   351	   352#	   352	   353#	   353	   354#	   354	   355#	   355	   356#	   356	   357#	   357
	   358#	   358	   359#	   359	   360#	   360	   361#	   361	   362#	   362	   363#	   363	   364#	   364
	   365#	   365	   366#	   366	   367#	   367	   368#	   368	   369#	   369	   370#	   370	   371#	   371
	   372#	   372	   385#	   385	   386#	   386	   387#	   387	   388#	   388	   389#	   389	   390#	   390
	   391#	   391	   392#	   392	   393#	   393	   394#	   394	   395#	   395	   396#	   396	   397#	   397
	   398#	   398	   399#	   399	   405#	   405	   406#	   406	   407#	   407	   408#	   408	   409#	   409
	   410#	   410	   411#	   411	   412#	   412	   413#	   413	   414#	   414	   415#	   415	   416#	   416
	   417#	   417	   418#	   418	   419#	   419	   420#	   420	   421#	   421	   422#	   422	   423#	   423
	   424#	   424	   425#	   425	   426#	   426	   427#	   427	   428#	   428	   437#	   437	   438#	   438
	   439#	   439	   440#	   440	   441#	   441	   442#	   442	   443#	   443	   444#	   444	   445#	   445
	   449#	   449	   450#	   450	   451#	   451
RMAIN - MAIN PROGRAM FOR REMIND	MACRO 12.5-46.0 21:51  2-MAR-81
RMAIN.MAC	19-JUN-78 15:02		Macro/Opdef cross reference

CMD0	   267#	   332	   337	   349	   361	   373
CMD1	   282#	   333	   385	   390	   395	   400
CMD2	   290#	   334	   405	   413	   421	   429
CMD3	   301#	   335	   437	   440	   443	   446
CMD4	   307#	   336	   449	   450	   451	   452
CMDIT	   326#	   331
CMDR	   311#	   332	   333	   334	   335	   336
CMDR1	   319#	   337	   385	   405	   437	   449
EXIT	   151	   475
OUTSTR	   158	   195	   200	   201	   229	   243	   264	   488
RESET	   145
SKPINC	   156
TABLE	    60#	   337	   385	   405	   437	   449
WRD	    53#	   337	   338	   339	   340	   341	   342	   343	   344	   345	   346	   347	   348	   349
	   350	   351	   352	   353	   354	   355	   356	   357	   358	   359	   360	   361	   362	   363
	   364	   365	   366	   367	   368	   369	   370	   371	   372	   385	   386	   387	   388	   389
	   390	   391	   392	   393	   394	   395	   396	   397	   398	   399	   405	   406	   407	   408
	   409	   410	   411	   412	   413	   414	   415	   416	   417	   418	   419	   420	   421	   422
	   423	   424	   425	   426	   427	   428	   437	   438	   439	   440	   441	   442	   443	   444
	   445	   449	   450	   451
X	   332#	   332	   333#	   333	   334#	   334	   335#	   335	   336#	   336	   337#	   337	   338	   339
	   340	   341	   342	   343	   344	   345	   346	   347	   348	   349#	   349	   350	   351	   352
	   353	   354	   355	   356	   357	   358	   359	   360	   361#	   361	   362	   363	   364	   365
	   366	   367	   368	   369	   370	   371	   372	   373#	   373	   374	   375	   376	   377	   378
	   379	   380	   381	   382	   383	   384	   385#	   385	   386	   387	   388	   389	   390#	   390
	   391	   392	   393	   394	   395#	   395	   396	   397	   398	   399	   400#	   400	   401	   402
	   403	   404	   405#	   405	   406	   407	   408	   409	   410	   411	   412	   413#	   413	   414
	   415	   416	   417	   418	   419	   420	   421#	   421	   422	   423	   424	   425	   426	   427
	   428	   429#	   429	   430	   431	   432	   433	   434	   435	   436	   437#	   437	   438	   439
	   440#	   440	   441	   442	   443#	   443	   444	   445	   446#	   446	   447	   448	   449#	   449
	   450#	   450	   451#	   451	   452#	   452   RSCAN - SCANNER FOR REMIND	MACRO 12.5-46.0 21:52  2-MAR-81 PAGE 1
RPARAM.MAC	12-APR-78 19:35	

     1			000000	00100	FL=0
     2			000001	00200	T1=1
     3			000002	00300	T2=2
     4			000003	00400	T3=3
     5			000004	00500	T4=4
     6			000005	00600	t5=5
     7
     8			000017	00800	P=17
     9			000016	00900	P2=16
    10			000015	01000	CS=15		;CHARACTER FLAGS
    11			000014	01100	C=14		;CHARACTER
    12			000013	01200	BUF=13
    13			000012	01300	BLK=12
    14			000011	01400	DPTR=11		;POINTER TO DATE STRING
    15			000010	01500	DCNT=10		;NUMBER OF CHRS LEFT TO PUT IN DATE STRING
    16			000007	01600	ITEM=7	;BACK FROM THE SCANNER
    17			000006	01700	CODE=6		;ALSO BACK FROM THE SCANER
    18
    19				01900	;FLAGS IN F (RH)
    20
    21			000001	02100	IDF==1		;IDENT SEEN BY SCANNER
    22			000002	02200	NUMF==2		;NUMBER SEEN BY SCANNER
    23			000004	02300	FNEED1==4	;FLAG FOR DATES, A DATE NEEDED
    24			000010	02400	FEXCPT==10	;FLAG FOR DATES, IN EXCEPT
    25			000020	02500	FREF==20	;FLAG FOR DATES, READ A REFERENCE (ETC.) DATE
    26			000040	02600	FRDATE==40	;FLAG FOR DATES, REAL DATE (USED BY REF)
    27			000100	02700	FBEF==100	;IN A BEFORE OR AFTER STREAM
    28			000200	02800	FREF2==200	;FLAG FOR BETWEEN ( IS PERMITTED ELSE LIKE FREF
    29			000400	02900	circ==400	;flag for circuit built (alarm)
    30
    31			000001	03100	TTY==1
    32			000002	03200	REM==2
    33			000003	03300	MAL==3		;MAILBOX
    34
    35				03500	;FLAGS IN LH OF COMMAND TABLE
    36
    37			400000	03700	DIPRS==400000	;DISPATCH ADDRESS PRESENT
    38			200000	03800	DSPIND==200000		;DISPATCH INCREMENT PRESENT
    39			100000	03900	RSTERR==100000		;RESET ERROR TABLE
    40			040000	04000	SETPRI==040000		;"PRIMARY" COMMAND
    41			020000	04100	STPSCN==020000		;DISPATCH NOW, END OF COMMAND
    42
    43			000040	04300	PDLSZ==40
    44			000020	04400	PDLSZ2==20
    45
    46
    47			000177	04700	MALHSH==177	;HASH FOR LOOKING AT MAILBOX
    48
    49			000156	04900	DATSIZ==^D110	;SIZE OF DATE STORAGE (MAX)
RSCAN - SCANNER FOR REMIND	MACRO 12.5-46.0 21:52  2-MAR-81 PAGE 2
RPARAM.MAC	12-APR-78 19:35	

    50				00100	;DEFINITION OF MACRO TO GENERATE THE FIRST 3 WORDS OF SIXBIT
    51
    52				00300		DEFINE WRD(A,B)
    53				00400	<ZZ==0
    54				00500	ZZ1==0
    55				00600		IRPC A,<ZZ=ZZ+1
    56				00700	IFG ZZ-B,<IFLE ZZ-B-6,<ZZ1==ZZ1_6+''A''>>>
    57				00800	IFL ZZ-B-6,<ZZ1==ZZ1_<<B+6-ZZ>*6>>
    58				00900		ZZ1>
    59				01000		DEFINE TABLE (A)
    60				01100	<	DEFINE X(B,C,D,E)
    61				01200	<	WRD (B,0)>
    62				01300		A
    63				01400		DEFINE X(B,C,D,E)
    64				01500	<	WRD (B,6)>
    65				01600		A
    66				01700		DEFINE X(B,C,D,E)
    67				01800	<	WRD (B,^D12)>
    68				01900		A>
RSCAN - SCANNER FOR REMIND	MACRO 12.5-46.0 21:52  2-MAR-81 PAGE 1
RSCAN.MAC	12-APR-78 19:37	

    69				00100	TITLE RSCAN - SCANNER FOR REMIND
    70
    71				00400	INTERNAL NMSC,SCAN,SCANI,TIBUF,GETTY,TERMF
RSCAN - SCANNER FOR REMIND	MACRO 12.5-46.0 21:52  2-MAR-81 PAGE 2
RSCAN.MAC	12-APR-78 19:37	

    72
    73	000000'	606000	000001	00020	NMSC:	TRNN FL,IDF
    74	000001'	263740	000000	00030		POPJ P,		;ERROR IF NOT ID
    75	000002'	205200	777775	00040		MOVSI T4,-3	;SET UP 3 MASKS
    76	000003'	200104	000330'	00050	NMSC0:	MOVE T2,ACCUM(T4)
    77	000004'	211140	000001	00060		MOVNI T3,1	;GENERATE MASK
    78	000005'	607100	770000	00070	NMSC1:	TLNN T2,770000
    79	000006'	621140	770000	00080		TLZ T3,770000
    80	000007'	246100	000006	00090		LSHC T2,6
    81	000010'	326140	000005'	00100		JUMPN T3,NMSC1
    82	000011'	202104	000333'	00110		MOVEM T2,MASK(T4)
    83	000012'	253200	000003'	00120		AOBJN T4,NMSC0
    84	000013'	574200	000001	00130		HLRE T4,T1		;SET UP POINTERS TO GET EXTR WRDS
    85	000014'	213000	000004	00140		MOVNS T4
    86	000015'	505200	000001	00150		HRLI T4,T1
    87	000016'	202200	000336'	00160		MOVEM T4,INC1#
    88	000017'	242200	000001	00170		LSH T4,1
    89	000020'	505200	000001	00180		HRLI T4,T1
    90	000021'	202200	000337'	00190		MOVEM T4,INC2#
    91	000022'	201200	000000	00200		MOVEI T4,0	;THIS IS THE REMEBERED DISPATCH ADRS
    92	000023'	200141	000000	00210	NMSC2:	MOVE T3,(T1)
    93	000024'	312140	000330'	00220		CAME T3,ACCUM
    94	000025'	254000	000034'	00230		JRST NMSC4	;NOT EXACT MATCH
    95	000026'	200120	000336'	00240		MOVE T2,@INC1
    96	000027'	312100	000331'	00250		CAME T2,ACCUM+1
    97	000030'	254000	000034'	00260		JRST NMSC4
    98	000031'	200120	000337'	00270		MOVE T2,@INC2
    99	000032'	316100	000332'	00280		CAMN T2,ACCUM+2
   100	000033'	254000	000053'	00290		JRST CPOPJ1	;FOUND EXACT MATCH
   101	000034'	404140	000333'	00300	NMSC4:	AND T3,MASK
   102	000035'	312140	000330'	00310		CAME T3,ACCUM
   103	000036'	254000	000051'	00320		JRST NMSC3	;NOT EVEN PARTIAL
   104	000037'	200160	000336'	00330		MOVE T3,@INC1
   105	000040'	404140	000334'	00340		AND T3,MASK+1
   106	000041'	312140	000331'	00350		CAME T3,ACCUM+1
   107	000042'	254000	000051'	00360		JRST NMSC3
   108	000043'	200160	000337'	00370		MOVE T3,@INC2
   109	000044'	404140	000335'	00380		AND T3,MASK+2
   110	000045'	312140	000332'	00390		CAME T3,ACCUM+2
   111	000046'	254000	000051'	00400		JRST NMSC3
   112	000047'	326200	000054'	00410		JUMPN T4,CPOPJ	;SECOND PARTIAL
   113	000050'	200200	000001	00420		MOVE T4,T1		;FIRST PARTIAL, SAVE IT
   114	000051'	253040	000023'	00430	NMSC3:	AOBJN T1,NMSC2
   115	000052'	332040	000004	00440		SKIPE T1,T4	;WAS THERE A PARTIAL??
   116	000053'	350017	000000	00450	CPOPJ1:	AOS (P)
   117	000054'	263740	000000	00460	CPOPJ:	POPJ P,
RSCAN - SCANNER FOR REMIND	MACRO 12.5-46.0 21:52  2-MAR-81 PAGE 3
RSCAN.MAC	12-APR-78 19:37	

   118				00010	;SCAN ROUTINES
   119
   120			200000	00030	CSNUM==200000		;DIGIT FLAG IN LH OF CS OR CTAB
   121			100000	00040	TERMF==100000		;TERMINATOR
   122
   123	000055'	000000	000000	00060	CTAB:	0
   124				00070		REPEAT 10,<.-CTAB>
   125	000056'	000000	000001		.-CTAB
   126	000057'	000000	000002		.-CTAB
   127	000060'	000000	000003		.-CTAB
   128	000061'	000000	000004		.-CTAB
   129	000062'	000000	000005		.-CTAB
   130	000063'	000000	000006		.-CTAB
   131	000064'	000000	000007		.-CTAB
   132	000065'	000000	000010		.-CTAB
   133	000066'	000000	000000	00080		0
   134	000067'	100000	000000	00090		XWD TERMF,0
   135	000070'	000000	000013	00100		EXP 13,14,0
	000071'	000000	000014
	000072'	000000	000000
   136				00110		REPEAT 22,<.-CTAB>
   137	000073'	000000	000016		.-CTAB
   138	000074'	000000	000017		.-CTAB
   139	000075'	000000	000020		.-CTAB
   140	000076'	000000	000021		.-CTAB
   141	000077'	000000	000022		.-CTAB
   142	000100'	000000	000023		.-CTAB
   143	000101'	000000	000024		.-CTAB
   144	000102'	000000	000025		.-CTAB
   145	000103'	000000	000026		.-CTAB
   146	000104'	000000	000027		.-CTAB
   147	000105'	000000	000030		.-CTAB
   148	000106'	000000	000031		.-CTAB
   149	000107'	000000	000032		.-CTAB
   150	000110'	000000	000033		.-CTAB
   151	000111'	000000	000034		.-CTAB
   152	000112'	000000	000035		.-CTAB
   153	000113'	000000	000036		.-CTAB
   154	000114'	000000	000037		.-CTAB
   155	000115'	000000	000000	00120		0
   156				00130		REPEAT 17,<.-CTAB>
   157	000116'	000000	000041		.-CTAB
   158	000117'	000000	000042		.-CTAB
   159	000120'	000000	000043		.-CTAB
   160	000121'	000000	000044		.-CTAB
   161	000122'	000000	000045		.-CTAB
   162	000123'	000000	000046		.-CTAB
   163	000124'	000000	000047		.-CTAB
   164	000125'	000000	000050		.-CTAB
   165	000126'	000000	000051		.-CTAB
   166	000127'	000000	000052		.-CTAB
   167	000130'	000000	000053		.-CTAB
   168	000131'	000000	000054		.-CTAB
RSCAN - SCANNER FOR REMIND	MACRO 12.5-46.0 21:52  2-MAR-81 PAGE 3-2
RSCAN.MAC	12-APR-78 19:37	

   169	000132'	000000	000055		.-CTAB
   170	000133'	000000	000056		.-CTAB
   171	000134'	000000	000057		.-CTAB
   172				00140		REPEAT 12,<XWD 400000+CSNUM,.-CTAB-40>
   173	000135'	600000	000020		XWD 400000+CSNUM,.-CTAB-40
   174	000136'	600000	000021		XWD 400000+CSNUM,.-CTAB-40
   175	000137'	600000	000022		XWD 400000+CSNUM,.-CTAB-40
   176	000140'	600000	000023		XWD 400000+CSNUM,.-CTAB-40
   177	000141'	600000	000024		XWD 400000+CSNUM,.-CTAB-40
   178	000142'	600000	000025		XWD 400000+CSNUM,.-CTAB-40
   179	000143'	600000	000026		XWD 400000+CSNUM,.-CTAB-40
   180	000144'	600000	000027		XWD 400000+CSNUM,.-CTAB-40
   181	000145'	600000	000030		XWD 400000+CSNUM,.-CTAB-40
   182	000146'	600000	000031		XWD 400000+CSNUM,.-CTAB-40
   183				00150		REPEAT 7,<.-CTAB>
   184	000147'	000000	000072		.-CTAB
   185	000150'	000000	000073		.-CTAB
   186	000151'	000000	000074		.-CTAB
   187	000152'	000000	000075		.-CTAB
   188	000153'	000000	000076		.-CTAB
   189	000154'	000000	000077		.-CTAB
   190	000155'	000000	000100		.-CTAB
   191				00160		REPEAT 32,<XWD 400000,.-CTAB-40>
   192	000156'	400000	000041		XWD 400000,.-CTAB-40
   193	000157'	400000	000042		XWD 400000,.-CTAB-40
   194	000160'	400000	000043		XWD 400000,.-CTAB-40
   195	000161'	400000	000044		XWD 400000,.-CTAB-40
   196	000162'	400000	000045		XWD 400000,.-CTAB-40
   197	000163'	400000	000046		XWD 400000,.-CTAB-40
   198	000164'	400000	000047		XWD 400000,.-CTAB-40
   199	000165'	400000	000050		XWD 400000,.-CTAB-40
   200	000166'	400000	000051		XWD 400000,.-CTAB-40
   201	000167'	400000	000052		XWD 400000,.-CTAB-40
   202	000170'	400000	000053		XWD 400000,.-CTAB-40
   203	000171'	400000	000054		XWD 400000,.-CTAB-40
   204	000172'	400000	000055		XWD 400000,.-CTAB-40
   205	000173'	400000	000056		XWD 400000,.-CTAB-40
   206	000174'	400000	000057		XWD 400000,.-CTAB-40
   207	000175'	400000	000060		XWD 400000,.-CTAB-40
   208	000176'	400000	000061		XWD 400000,.-CTAB-40
   209	000177'	400000	000062		XWD 400000,.-CTAB-40
   210	000200'	400000	000063		XWD 400000,.-CTAB-40
   211	000201'	400000	000064		XWD 400000,.-CTAB-40
   212	000202'	400000	000065		XWD 400000,.-CTAB-40
   213	000203'	400000	000066		XWD 400000,.-CTAB-40
   214	000204'	400000	000067		XWD 400000,.-CTAB-40
   215	000205'	400000	000070		XWD 400000,.-CTAB-40
   216	000206'	400000	000071		XWD 400000,.-CTAB-40
   217	000207'	400000	000072		XWD 400000,.-CTAB-40
   218				00170		REPEAT 6,<.-CTAB>
   219	000210'	000000	000133		.-CTAB
   220	000211'	000000	000134		.-CTAB
   221	000212'	000000	000135		.-CTAB
RSCAN - SCANNER FOR REMIND	MACRO 12.5-46.0 21:52  2-MAR-81 PAGE 3-3
RSCAN.MAC	12-APR-78 19:37	

   222	000213'	000000	000136		.-CTAB
   223	000214'	000000	000137		.-CTAB
   224	000215'	000000	000140		.-CTAB
   225				00180		REPEAT 32,<XWD 400000,.-CTAB-100>
   226	000216'	400000	000041		XWD 400000,.-CTAB-100
   227	000217'	400000	000042		XWD 400000,.-CTAB-100
   228	000220'	400000	000043		XWD 400000,.-CTAB-100
   229	000221'	400000	000044		XWD 400000,.-CTAB-100
   230	000222'	400000	000045		XWD 400000,.-CTAB-100
   231	000223'	400000	000046		XWD 400000,.-CTAB-100
   232	000224'	400000	000047		XWD 400000,.-CTAB-100
   233	000225'	400000	000050		XWD 400000,.-CTAB-100
   234	000226'	400000	000051		XWD 400000,.-CTAB-100
   235	000227'	400000	000052		XWD 400000,.-CTAB-100
   236	000230'	400000	000053		XWD 400000,.-CTAB-100
   237	000231'	400000	000054		XWD 400000,.-CTAB-100
   238	000232'	400000	000055		XWD 400000,.-CTAB-100
   239	000233'	400000	000056		XWD 400000,.-CTAB-100
   240	000234'	400000	000057		XWD 400000,.-CTAB-100
   241	000235'	400000	000060		XWD 400000,.-CTAB-100
   242	000236'	400000	000061		XWD 400000,.-CTAB-100
   243	000237'	400000	000062		XWD 400000,.-CTAB-100
   244	000240'	400000	000063		XWD 400000,.-CTAB-100
   245	000241'	400000	000064		XWD 400000,.-CTAB-100
   246	000242'	400000	000065		XWD 400000,.-CTAB-100
   247	000243'	400000	000066		XWD 400000,.-CTAB-100
   248	000244'	400000	000067		XWD 400000,.-CTAB-100
   249	000245'	400000	000070		XWD 400000,.-CTAB-100
   250	000246'	400000	000071		XWD 400000,.-CTAB-100
   251	000247'	400000	000072		XWD 400000,.-CTAB-100
   252				00190		REPEAT 5,<.-CTAB>
   253	000250'	000000	000173		.-CTAB
   254	000251'	000000	000174		.-CTAB
   255	000252'	000000	000175		.-CTAB
   256	000253'	000000	000176		.-CTAB
   257	000254'	000000	000177		.-CTAB
   258
   259
   260
   261	000255'	402000	000340'	00230	SCANI:	SETZM SAVCHR#
   262	000256'	066040	000000	00240		INPUT TTY,0
   263
   264	000257'	620000	000003	00260	SCAN:	TRZ FL,IDF!NUMF
   265	000260'	336640	000340'	00270		SKIPN CS,SAVCHR
   266	000261'	260740	000320'	00280		PUSHJ P,GETTY
   267	000262'	322640	000261'	00290		JUMPE CS,.-1
   268	000263'	327640	000316'	00300		JUMPG CS,SPCHR	;SPECIAL CHARACTER
   269	000264'	402000	000330'	00310		SETZM ACCUM
   270	000265'	402000	000331'	00320		SETZM ACCUM+1
   271	000266'	402000	000332'	00330		SETZM ACCUM+2
   272	000267'	201100	000021	00340		MOVEI T2,^D17	;NUMBER OF CHRS PERMITTED
   273	000270'	202100	000341'	00350		MOVEM T2,SCOUNT#
   274	000271'	200100	000342'	00360		MOVE T2,[POINT 6,ACCUM]
RSCAN - SCANNER FOR REMIND	MACRO 12.5-46.0 21:52  2-MAR-81 PAGE 3-4
RSCAN.MAC	12-APR-78 19:37	

   275	000272'	603640	200000	00370		TLNE CS,CSNUM
   276	000273'	254000	000304'	00380		JRST SCNUM
   277	000274'	371000	000341'	00390	SCAN1:	SOSL SCOUNT
   278	000275'	136640	000002	00400		IDPB CS,T2
   279	000276'	260740	000320'	00410		PUSHJ P,GETTY
   280	000277'	321640	000274'	00420		JUMPL CS,SCAN1	;MORE OF IDENT
   281	000300'	202640	000340'	00430	SCAN2:	MOVEM CS,SAVCHR
   282	000301'	201640	000000	00440		MOVEI CS,0
   283	000302'	660000	000001	00450		TRO FL,IDF
   284	000303'	263740	000000	00460		POPJ P,
   285
   286	000304'	201140	000000	00480	SCNUM:	MOVEI T3,0
   287	000305'	371000	000341'	00490	SCNUM1:	SOSL SCOUNT
   288	000306'	136640	000002	00500		IDPB CS,T2	;ACCUMULATE LIKE ID ALSO
   289	000307'	221140	000012	00510		IMULI T3,^D10
   290	000310'	271155	777760	00520		ADDI T3,-'0'(CS)
   291	000311'	260740	000320'	00530		PUSHJ P,GETTY
   292	000312'	603640	200000	00540		TLNE CS,CSNUM
   293	000313'	254000	000305'	00550		JRST SCNUM1
   294	000314'	660000	000002	00560		TRO FL,NUMF
   295	000315'	254000	000300'	00570		JRST SCAN2
   296
   297	000316'	402000	000340'	00590	SPCHR:	SETZM SAVCHR
   298	000317'	263740	000000	00600		POPJ P,
   299
   300	000320'	375000	000327'	00620	GETTY:	SOSGE TIBUF+2
   301	000321'	066040	000000	00630		INPUT TTY,0
   302	000322'	134600	000326'	00640		ILDB C,TIBUF+1
   303	000323'	200654	000055'	00650		MOVE CS,CTAB(C)
   304	000324'	263740	000000	00660		POPJ P,
   305
   306	000325'			00680	TIBUF:	BLOCK 3
   307	000330'			00690	ACCUM:	BLOCK 3
   308	000333'			00700	MASK:	BLOCK 3
   309
   310				00720		END
   311
NO ERRORS DETECTED
PROGRAM BREAK IS 000343
2K CORE USED
RSCAN - SCANNER FOR REMIND	MACRO 12.5-46.0 21:52  2-MAR-81 PAGE 4
RSCAN.MAC	12-APR-78 19:37		SYMBOL TABLE

ACCUM		000330'		SPCHR		000316'		
BLK		000012		STPSCN		020000	SPD	
BUF		000013		T1		000001		
C		000014		T2		000002		
CIRC		000400	SPD	T3		000003		
CODE		000006		T4		000004		
CPOPJ		000054'		T5		000005		
CPOPJ1		000053'		TERMF		100000	SIN	
CS		000015		TIBUF		000325'	INT	
CSNUM		200000	SPD	TTY		000001	SPD	
CTAB		000055'		
DATSIZ		000156	SPD	
DCNT		000010		
DIPRS		400000	SPD	
DPTR		000011		
DSPIND		200000	SPD	
FBEF		000100	SPD	
FEXCPT		000010	SPD	
FL		000000		
FNEED1		000004	SPD	
FRDATE		000040	SPD	
FREF		000020	SPD	
FREF2		000200	SPD	
GETTY		000320'	INT	
IDF		000001	SPD	
INC1		000336'		
INC2		000337'		
ITEM		000007		
MAL		000003	SPD	
MALHSH		000177	SPD	
MASK		000333'		
NMSC		000000'	INT	
NMSC0		000003'		
NMSC1		000005'		
NMSC2		000023'		
NMSC3		000051'		
NMSC4		000034'		
NUMF		000002	SPD	
P		000017		
P2		000016		
PDLSZ		000040	SPD	
PDLSZ2		000020	SPD	
REM		000002	SPD	
RSTERR		100000	SPD	
SAVCHR		000340'		
SCAN		000257'	INT	
SCAN1		000274'		
SCAN2		000300'		
SCANI		000255'	INT	
SCNUM		000304'		
SCNUM1		000305'		
SCOUNT		000341'		

RSCAN - SCANNER FOR REMIND	MACRO 12.5-46.0 21:52  2-MAR-81
RSCAN.MAC	12-APR-78 19:37		Symbol cross reference

ACCUM	    76	    93	    96	    99	   102	   106	   110	   269	   270	   271	   274	   307#
BLK	    13#
BUF	    12#
C	    11#	   302	   303
CIRC	    29#
CODE	    17#
CPOPJ	   112	   117#
CPOPJ1	   100	   116#
CS	    10#	   265	   267	   268	   275	   278	   280	   281	   282	   288	   290	   292	   303
CSNUM	   120#	   173	   174	   175	   176	   177	   178	   179	   180	   181	   182	   275	   292
CTAB	   123#	   125	   126	   127	   128	   129	   130	   131	   132	   137	   138	   139	   140	   141
	   142	   143	   144	   145	   146	   147	   148	   149	   150	   151	   152	   153	   154	   157
	   158	   159	   160	   161	   162	   163	   164	   165	   166	   167	   168	   169	   170	   171
	   173	   174	   175	   176	   177	   178	   179	   180	   181	   182	   184	   185	   186	   187
	   188	   189	   190	   192	   193	   194	   195	   196	   197	   198	   199	   200	   201	   202
	   203	   204	   205	   206	   207	   208	   209	   210	   211	   212	   213	   214	   215	   216
	   217	   219	   220	   221	   222	   223	   224	   226	   227	   228	   229	   230	   231	   232
	   233	   234	   235	   236	   237	   238	   239	   240	   241	   242	   243	   244	   245	   246
	   247	   248	   249	   250	   251	   253	   254	   255	   256	   257	   303
DATSIZ	    49#
DCNT	    15#
DIPRS	    37#
DPTR	    14#
DSPIND	    38#
FBEF	    27#
FEXCPT	    24#
FL	     1#	    73	   264	   283	   294
FNEED1	    23#
FRDATE	    26#
FREF	    25#
FREF2	    28#
GETTY	    71	   266	   279	   291	   300#
IDF	    21#	    73	   264	   283
INC1	    87#	    87	    95	   104
INC2	    90#	    90	    98	   108
ITEM	    16#
MAL	    33#
MALHSH	    47#
MASK	    82	   101	   105	   109	   308#
NMSC	    71	    73#
NMSC0	    76#	    83
NMSC1	    78#	    81
NMSC2	    92#	   114
NMSC3	   103	   107	   111	   114#
NMSC4	    94	    97	   101#
NUMF	    22#	   264	   294
P	     8#	    74	   116	   117	   266	   279	   284	   291	   298	   304
P2	     9#
PDLSZ	    43#
PDLSZ2	    44#
REM	    32#
RSTERR	    39#
SAVCHR	   261#	   261	   265	   281	   297
RSCAN - SCANNER FOR REMIND	MACRO 12.5-46.0 21:52  2-MAR-81
RSCAN.MAC	12-APR-78 19:37		Symbol cross reference

SCAN	    71	   264#
SCAN1	   277#	   280
SCAN2	   281#	   295
SCANI	    71	   261#
SCNUM	   276	   286#
SCNUM1	   287#	   293
SCOUNT	   273#	   273	   277	   287
SETPRI	    40#
SPCHR	   268	   297#
STPSCN	    41#
T1	     2#	    84	    86	    89	    92	   113	   114	   115
T2	     3#	    76	    78	    80	    82	    95	    96	    98	    99	   272	   273	   274	   278	   288
T3	     4#	    77	    79	    81	    92	    93	   101	   102	   104	   105	   106	   108	   109	   110
	   286	   289	   290
T4	     5#	    75	    76	    82	    83	    84	    85	    86	    87	    88	    89	    90	    91	   112
	   113	   115
T5	     6#
TERMF	    71	   121#	   134
TIBUF	    71	   300	   302	   306#
TTY	    31#	   262	   301
RSCAN - SCANNER FOR REMIND	MACRO 12.5-46.0 21:52  2-MAR-81
RSCAN.MAC	12-APR-78 19:37		Macro/Opdef cross reference

TABLE	    60#
WRD	    53#   RCOM - COMMON ROUTINES FOR REMIND AND SEC	MACRO 12.5-46.0 21:52  2-MAR-81 PAGE 1
RPARAM.MAC	12-APR-78 19:35	

     1			000000	00100	FL=0
     2			000001	00200	T1=1
     3			000002	00300	T2=2
     4			000003	00400	T3=3
     5			000004	00500	T4=4
     6			000005	00600	t5=5
     7
     8			000017	00800	P=17
     9			000016	00900	P2=16
    10			000015	01000	CS=15		;CHARACTER FLAGS
    11			000014	01100	C=14		;CHARACTER
    12			000013	01200	BUF=13
    13			000012	01300	BLK=12
    14			000011	01400	DPTR=11		;POINTER TO DATE STRING
    15			000010	01500	DCNT=10		;NUMBER OF CHRS LEFT TO PUT IN DATE STRING
    16			000007	01600	ITEM=7	;BACK FROM THE SCANNER
    17			000006	01700	CODE=6		;ALSO BACK FROM THE SCANER
    18
    19				01900	;FLAGS IN F (RH)
    20
    21			000001	02100	IDF==1		;IDENT SEEN BY SCANNER
    22			000002	02200	NUMF==2		;NUMBER SEEN BY SCANNER
    23			000004	02300	FNEED1==4	;FLAG FOR DATES, A DATE NEEDED
    24			000010	02400	FEXCPT==10	;FLAG FOR DATES, IN EXCEPT
    25			000020	02500	FREF==20	;FLAG FOR DATES, READ A REFERENCE (ETC.) DATE
    26			000040	02600	FRDATE==40	;FLAG FOR DATES, REAL DATE (USED BY REF)
    27			000100	02700	FBEF==100	;IN A BEFORE OR AFTER STREAM
    28			000200	02800	FREF2==200	;FLAG FOR BETWEEN ( IS PERMITTED ELSE LIKE FREF
    29			000400	02900	circ==400	;flag for circuit built (alarm)
    30
    31			000001	03100	TTY==1
    32			000002	03200	REM==2
    33			000003	03300	MAL==3		;MAILBOX
    34
    35				03500	;FLAGS IN LH OF COMMAND TABLE
    36
    37			400000	03700	DIPRS==400000	;DISPATCH ADDRESS PRESENT
    38			200000	03800	DSPIND==200000		;DISPATCH INCREMENT PRESENT
    39			100000	03900	RSTERR==100000		;RESET ERROR TABLE
    40			040000	04000	SETPRI==040000		;"PRIMARY" COMMAND
    41			020000	04100	STPSCN==020000		;DISPATCH NOW, END OF COMMAND
    42
    43			000040	04300	PDLSZ==40
    44			000020	04400	PDLSZ2==20
    45
    46
    47			000177	04700	MALHSH==177	;HASH FOR LOOKING AT MAILBOX
    48
    49			000156	04900	DATSIZ==^D110	;SIZE OF DATE STORAGE (MAX)
RCOM - COMMON ROUTINES FOR REMIND AND SEC	MACRO 12.5-46.0 21:52  2-MAR-81 PAGE 2
RPARAM.MAC	12-APR-78 19:35	

    50				00100	;DEFINITION OF MACRO TO GENERATE THE FIRST 3 WORDS OF SIXBIT
    51
    52				00300		DEFINE WRD(A,B)
    53				00400	<ZZ==0
    54				00500	ZZ1==0
    55				00600		IRPC A,<ZZ=ZZ+1
    56				00700	IFG ZZ-B,<IFLE ZZ-B-6,<ZZ1==ZZ1_6+''A''>>>
    57				00800	IFL ZZ-B-6,<ZZ1==ZZ1_<<B+6-ZZ>*6>>
    58				00900		ZZ1>
    59				01000		DEFINE TABLE (A)
    60				01100	<	DEFINE X(B,C,D,E)
    61				01200	<	WRD (B,0)>
    62				01300		A
    63				01400		DEFINE X(B,C,D,E)
    64				01500	<	WRD (B,6)>
    65				01600		A
    66				01700		DEFINE X(B,C,D,E)
    67				01800	<	WRD (B,^D12)>
    68				01900		A>
RCOM - COMMON ROUTINES FOR REMIND AND SEC	MACRO 12.5-46.0 21:52  2-MAR-81 PAGE 1
RCOM.MAC	12-APR-78 19:37	

    69				00100	TITLE RCOM - COMMON ROUTINES FOR REMIND AND SEC
    70
    71
    72				00400	INTERNAL OUTSIX,OUTNUM,PDL,PDL2,CPOPJ1,CPOPJ,OUTSXL
RCOM - COMMON ROUTINES FOR REMIND AND SEC	MACRO 12.5-46.0 21:52  2-MAR-81 PAGE 2
RCOM.MAC	12-APR-78 19:37	

    73	000000'	200103	000000	00100	OUTSXL:	MOVE T2,(T3)	;OUT SIXBIT, ALL LOWER CASE
    74	000001'	254000	000007'	00200		JRST OUTSX2
    75
    76	000002'	200103	000000	00400	OUTSIX:	MOVE T2,(T3)
    77	000003'	400040	000000	00500		SETZ T1,
    78	000004'	246040	000006	00600		LSHC T1,6
    79	000005'	271040	000040	00700		ADDI T1," "	;PRINT FIRST CHAR AS UPPER CASE
    80	000006'	051040	000001	00800		OUTCHR T1
    81	000007'	260740	000024'	00900	OUTSX2:	PUSHJ P,OUTSX1
    82	000010'	574100	000003	01000		HLRE T2,T3
    83	000011'	213000	000002	01100		MOVNS T2
    84	000012'	270100	000003	01200		ADD T2,T3
    85	000013'	200102	000000	01300		MOVE T2,(T2)
    86	000014'	322100	000043'	01400		JUMPE T2,CPOPJ
    87	000015'	260740	000024'	01500		PUSHJ P,OUTSX1
    88	000016'	574100	000003	01600		HLRE T2,T3
    89	000017'	213000	000002	01700		MOVNS T2
    90	000020'	242100	000001	01800		LSH T2,1
    91	000021'	270100	000003	01900		ADD T2,T3
    92	000022'	200102	000000	02000		MOVE T2,(T2)
    93	000023'	322100	000043'	02100		JUMPE T2,CPOPJ
    94	000024'	201040	000000	02200	OUTSX1:	MOVEI T1,0
    95	000025'	246040	000006	02300		LSHC T1,6
    96	000026'	435040	000100	02400		IORI T1,100
    97	000027'	051040	000001	02500		OUTCHR T1
    98	000030'	326100	000024'	02600		JUMPN T2,OUTSX1
    99	000031'	263740	000000	02700		POPJ P,
   100
   101	000032'	231140	000012	02900	OUTNUM:	IDIVI T3,^D10
   102	000033'	506217	000000	03000		HRLM T4,(P)
   103	000034'	332000	000003	03100		SKIPE T3
   104	000035'	260740	000032'	03200		PUSHJ P,OUTNUM
   105	000036'	554157	000000	03300		HLRZ T3,(P)
   106	000037'	271140	000060	03400		ADDI T3,"0"
   107	000040'	051040	000003	03500		OUTCHR T3
   108	000041'	263740	000000	03600		POPJ P,
   109
   110	000042'	350017	000000	03800	CPOPJ1:	AOS (P)
   111	000043'	263740	000000	03900	CPOPJ:	POPJ P,
   112
   113	000044'			04200	pdl:	block	pdlsz
   114	000104'			04300	pdl2:	block	pdlsz2
   115
   116				04700		END
   117
NO ERRORS DETECTED
PROGRAM BREAK IS 000124
2K CORE USED
RCOM - COMMON ROUTINES FOR REMIND AND SEC	MACRO 12.5-46.0 21:52  2-MAR-81 PAGE 3
RCOM.MAC	12-APR-78 19:37		SYMBOL TABLE

BLK		000012		
BUF		000013		
C		000014		
CIRC		000400	SPD	
CODE		000006		
CPOPJ		000043'	INT	
CPOPJ1		000042'	INT	
CS		000015		
DATSIZ		000156	SPD	
DCNT		000010		
DIPRS		400000	SPD	
DPTR		000011		
DSPIND		200000	SPD	
FBEF		000100	SPD	
FEXCPT		000010	SPD	
FL		000000		
FNEED1		000004	SPD	
FRDATE		000040	SPD	
FREF		000020	SPD	
FREF2		000200	SPD	
IDF		000001	SPD	
ITEM		000007		
MAL		000003	SPD	
MALHSH		000177	SPD	
NUMF		000002	SPD	
OUTCHR	051040	000000		
OUTNUM		000032'	INT	
OUTSIX		000002'	INT	
OUTSX1		000024'		
OUTSX2		000007'		
OUTSXL		000000'	INT	
P		000017		
P2		000016		
PDL		000044'	INT	
PDL2		000104'	INT	
PDLSZ		000040	SPD	
PDLSZ2		000020	SPD	
REM		000002	SPD	
RSTERR		100000	SPD	
SETPRI		040000	SPD	
STPSCN		020000	SPD	
T1		000001		
T2		000002		
T3		000003		
T4		000004		
T5		000005		
TTY		000001	SPD	

RCOM - COMMON ROUTINES FOR REMIND AND SEC	MACRO 12.5-46.0 21:52  2-MAR-81
RCOM.MAC	12-APR-78 19:37		Symbol cross reference

BLK	    13#
BUF	    12#
C	    11#
CIRC	    29#
CODE	    17#
CPOPJ	    72	    86	    93	   111#
CPOPJ1	    72	   110#
CS	    10#
DATSIZ	    49#
DCNT	    15#
DIPRS	    37#
DPTR	    14#
DSPIND	    38#
FBEF	    27#
FEXCPT	    24#
FL	     1#
FNEED1	    23#
FRDATE	    26#
FREF	    25#
FREF2	    28#
IDF	    21#
ITEM	    16#
MAL	    33#
MALHSH	    47#
NUMF	    22#
OUTNUM	    72	   101#	   104
OUTSIX	    72	    76#
OUTSX1	    81	    87	    94#	    98
OUTSX2	    74	    81#
OUTSXL	    72	    73#
P	     8#	    81	    87	    99	   102	   104	   105	   108	   110	   111
P2	     9#
PDL	    72	   113#
PDL2	    72	   114#
PDLSZ	    43#	   113
PDLSZ2	    44#	   114
REM	    32#
RSTERR	    39#
SETPRI	    40#
STPSCN	    41#
T1	     2#	    77	    78	    79	    80	    94	    95	    96	    97
T2	     3#	    73	    76	    82	    83	    84	    85	    86	    88	    89	    90	    91	    92	    93
	    98
T3	     4#	    73	    76	    82	    84	    88	    91	   101	   103	   105	   106	   107
T4	     5#	   102
T5	     6#
TTY	    31#
RCOM - COMMON ROUTINES FOR REMIND AND SEC	MACRO 12.5-46.0 21:52  2-MAR-81
RCOM.MAC	12-APR-78 19:37		Macro/Opdef cross reference

OUTCHR	    80	    97	   107
TABLE	    60#
WRD	    53#  RRMD - HANDLE REMIND CODE	MACRO 12.5-46.0 21:52  2-MAR-81 PAGE 1
RPARAM.MAC	12-APR-78 19:35	

     1			000000	00100	FL=0
     2			000001	00200	T1=1
     3			000002	00300	T2=2
     4			000003	00400	T3=3
     5			000004	00500	T4=4
     6			000005	00600	t5=5
     7
     8			000017	00800	P=17
     9			000016	00900	P2=16
    10			000015	01000	CS=15		;CHARACTER FLAGS
    11			000014	01100	C=14		;CHARACTER
    12			000013	01200	BUF=13
    13			000012	01300	BLK=12
    14			000011	01400	DPTR=11		;POINTER TO DATE STRING
    15			000010	01500	DCNT=10		;NUMBER OF CHRS LEFT TO PUT IN DATE STRING
    16			000007	01600	ITEM=7	;BACK FROM THE SCANNER
    17			000006	01700	CODE=6		;ALSO BACK FROM THE SCANER
    18
    19				01900	;FLAGS IN F (RH)
    20
    21			000001	02100	IDF==1		;IDENT SEEN BY SCANNER
    22			000002	02200	NUMF==2		;NUMBER SEEN BY SCANNER
    23			000004	02300	FNEED1==4	;FLAG FOR DATES, A DATE NEEDED
    24			000010	02400	FEXCPT==10	;FLAG FOR DATES, IN EXCEPT
    25			000020	02500	FREF==20	;FLAG FOR DATES, READ A REFERENCE (ETC.) DATE
    26			000040	02600	FRDATE==40	;FLAG FOR DATES, REAL DATE (USED BY REF)
    27			000100	02700	FBEF==100	;IN A BEFORE OR AFTER STREAM
    28			000200	02800	FREF2==200	;FLAG FOR BETWEEN ( IS PERMITTED ELSE LIKE FREF
    29			000400	02900	circ==400	;flag for circuit built (alarm)
    30
    31			000001	03100	TTY==1
    32			000002	03200	REM==2
    33			000003	03300	MAL==3		;MAILBOX
    34
    35				03500	;FLAGS IN LH OF COMMAND TABLE
    36
    37			400000	03700	DIPRS==400000	;DISPATCH ADDRESS PRESENT
    38			200000	03800	DSPIND==200000		;DISPATCH INCREMENT PRESENT
    39			100000	03900	RSTERR==100000		;RESET ERROR TABLE
    40			040000	04000	SETPRI==040000		;"PRIMARY" COMMAND
    41			020000	04100	STPSCN==020000		;DISPATCH NOW, END OF COMMAND
    42
    43			000040	04300	PDLSZ==40
    44			000020	04400	PDLSZ2==20
    45
    46
    47			000177	04700	MALHSH==177	;HASH FOR LOOKING AT MAILBOX
    48
    49			000156	04900	DATSIZ==^D110	;SIZE OF DATE STORAGE (MAX)
RRMD - HANDLE REMIND CODE	MACRO 12.5-46.0 21:52  2-MAR-81 PAGE 2
RPARAM.MAC	12-APR-78 19:35	

    50				00100	;DEFINITION OF MACRO TO GENERATE THE FIRST 3 WORDS OF SIXBIT
    51
    52				00300		DEFINE WRD(A,B)
    53				00400	<ZZ==0
    54				00500	ZZ1==0
    55				00600		IRPC A,<ZZ=ZZ+1
    56				00700	IFG ZZ-B,<IFLE ZZ-B-6,<ZZ1==ZZ1_6+''A''>>>
    57				00800	IFL ZZ-B-6,<ZZ1==ZZ1_<<B+6-ZZ>*6>>
    58				00900		ZZ1>
    59				01000		DEFINE TABLE (A)
    60				01100	<	DEFINE X(B,C,D,E)
    61				01200	<	WRD (B,0)>
    62				01300		A
    63				01400		DEFINE X(B,C,D,E)
    64				01500	<	WRD (B,6)>
    65				01600		A
    66				01700		DEFINE X(B,C,D,E)
    67				01800	<	WRD (B,^D12)>
    68				01900		A>
RRMD - HANDLE REMIND CODE	MACRO 12.5-46.0 21:52  2-MAR-81 PAGE 1
RRMD.MAC	12-APR-78 19:38	

    69				00100	TITLE RRMD - HANDLE REMIND CODE
    70
    71
    72				00300	INTERNAL CHGFIL,CHGREM,DELFIL,DELREM,INSFIL,INSREM,LSTFIL
    73				00400	INTERNAL LSTREM,SPCBLK,REMGET,RDNAM,NAMBUF,NONUM,NONUM0
    74
    75				00600	;IN RSCAN
    76				00700	EXTERNAL GETTY,TERMF,SCAN,SCANI
    77				00800	;IN RIO
    78				00900	EXTERNAL BUFBLK,BUFDTA,RDBUF,WRTBUF,ZRBUF,GETREM,NOUPDR
    79				01000	EXTERNAL REMSIZ
    80				01100	;IN RMAIN
    81				01200	EXTERNAL CMD
    82				01300	;IN RCOM
    83				01400	EXTERNAL CPOPJ1,OUTNUM
    84				01500	;IN RCDATE
    85				01600	EXTERNAL DATTIM
RRMD - HANDLE REMIND CODE	MACRO 12.5-46.0 21:52  2-MAR-81 PAGE 2
RRMD.MAC	12-APR-78 19:38	

    86				00010	;CODE TO HANDLE FILE COMMANDS
    87
    88				00030	;FIRST READ A FILE NAME
    89
    90
    91	000000'	201040	000035	00060	RDFNM:	MOVEI T1,^D29		;29 CHRS MAX
    92	000001'	402000	000467'	00070	RDNAM:	SETZM NAMBUF
    93	000002'	200100	000521'	00080		MOVE T2,[XWD NAMBUF,NAMBUF+1]
    94	000003'	251100	000516'	00090		BLT T2,NAMBUF+27	;CLEAR IT TO START WITH
    95	000004'	200100	000522'	00100		MOVE T2,[POINT 7,NAMBUF]
    96	000005'	260740	000000*	00110		PUSHJ P,GETTY
    97	000006'	322640	000005'	00120		JUMPE CS,.-1
    98	000007'	603640	000000*	00130	RDNAM1:	TLNE CS,TERMF		;SEE IF END OF NAME
    99	000010'	263740	000000	00140		POPJ P,
   100	000011'	306600	000015	00150		CAIN C,15		;WATCH FOR RETURN
   101	000012'	254000	000015'	00160		JRST NAMCHR		;AND IGNORE
   102	000013'	361040	000015'	00170		SOJL T1,NAMCHR		;DON'T GET TOO MANY CHRS
   103	000014'	136600	000002	00180		IDPB C,T2
   104	000015'	260740	000005*	00190	NAMCHR:	PUSHJ P,GETTY
   105	000016'	254000	000007'	00200		JRST RDNAM1
   106
   107				00220	;SEARCH FOR A FILE NAME IN THE FILE NAME LIST
   108
   109	000017'	201500	000001	00240	SRCREM:	MOVEI BLK,1	;LIST STARTS IN BLOCK 1
   110	000020'	402000	000520'	00250		SETZM SPCBLK#	;THIS IS THE LAST BLOCK FOUND WITH SPACE
   111	000021'	260740	000000*	00260	SRCRM1:	PUSHJ P,RDBUF
   112	000022'	200053	000000*	00270		MOVE T1,BUFDTA(BUF)	;GET FREE SPACE
   113	000023'	307040	000163	00280		CAIG T1,163	;ACTUALLY POINT TO FIRST FREE
   114	000024'	202500	000520'	00290		MOVEM BLK,SPCBLK	;THERE IS SPACE
   115	000025'	201053	000003*	00300		MOVEI T1,BUFDTA+3(BUF)	;NAMES START HERE
   116	000026'	505040	777757	00310		HRLI T1,-^D17		;17 PER BLOCK
   117	000027'	336001	000000	00320	SCRCNM:	SKIPN (T1)	;DOES IT POINT SOMEWHERE?
   118	000030'	254000	000045'	00330		JRST SCREBK		;NO, END OF BLOCK
   119	000031'	200101	000001	00340		MOVE T2,1(T1)
   120	000032'	312100	000467'	00350		CAME T2,NAMBUF	;SEE IF FIRST WORD THE SAME
   121	000033'	254000	000043'	00360		JRST SCRNXN		;NO
   122	000034'	205100	777772	00370		MOVSI T2,-6
   123	000035'	201141	000001	00380		MOVEI T3,1(T1)
   124	000036'	505140	000002	00390		HRLI T3,T2		;SET UP AN INDIRECT POINTER ON T2
   125	000037'	200220	000003	00400		MOVE T4,@T3
   126	000040'	316202	000467'	00410		CAMN T4,NAMBUF(T2)	;COMPARE ALL WORDS OF NAME
   127	000041'	253100	000037'	00420		AOBJN T2,.-2
   128	000042'	325100	000000*	00430		JUMPGE T2,CPOPJ1	;MUST ALL COMPARE, GOOD RET
   129	000043'	271040	000006	00440	SCRNXN:	ADDI T1,6
   130	000044'	253040	000027'	00450		AOBJN T1,SCRCNM
   131	000045'	202500	000517'	00460	SCREBK:	MOVEM BLK,LFBLK#	;OUT OF ROOM, RECORD BLOCK
   132	000046'	332513	000002*	00470		SKIPE BLK,BUFDTA+2(BUF)	;LINK?
   133	000047'	254000	000021'	00480		JRST SRCRM1		;YES
   134	000050'	263740	000000	00490		POPJ P,			;NO, LFBLK POINTS TO LAST BLOCK
RRMD - HANDLE REMIND CODE	MACRO 12.5-46.0 21:52  2-MAR-81 PAGE 3
RRMD.MAC	12-APR-78 19:38	

   135				00010	;THIS ROUTINE GETS A FREE BLOCK WHEN ONE NEEDED
   136
   137	000051'	201500	000001	00030	REMGET:	MOVEI BLK,1
   138	000052'	260740	000021*	00040		PUSHJ P,RDBUF		;POINTER TO FREE IN BLK 1
   139	000053'	200513	000001*	00050		MOVE BLK,BUFDTA+1(BUF)
   140	000054'	315500	000000*	00060		CAMGE BLK,REMSIZ	;IN FILE??
   141	000055'	254000	000071'	00070		JRST RGOLD		;YES
   142	000056'	260740	000000*	00080		PUSHJ P,ZRBUF		;NO, ZERO IT (WILL GET NEW ONE)
   143	000057'	070100	000000	00090		CLOSE REM,0		;HAVE CHANGED SIZE
   144	000060'	260740	000000*	00100		PUSHJ P,GETREM		;NOW RE-OPEN
   145	000061'	254000	000000*	00110		 JRST NOUPDR		;ERROR, CAN NOT GET IT BACK
   146	000062'	261740	000012	00120		PUSH P,BLK		;SAVE BLOCK NUMBER
   147	000063'	201500	000001	00130		MOVEI BLK,1
   148	000064'	260740	000052*	00140		PUSHJ P,RDBUF		;GET FIRST BLOCK BACK
   149	000065'	350013	000001*	00150		AOS BUFDTA+1(BUF)	;UPDATE FREE POINTER
   150	000066'	260740	000000*	00160		PUSHJ P,WRTBUF		;AND REWRITE
   151	000067'	262740	000012	00170		POP P,BLK
   152	000070'	263740	000000	00180		POPJ P,			;RETURN BLOCK NUMBER
   153
   154	000071'	260740	000064*	00200	RGOLD:	PUSHJ P,RDBUF		;GET THE BLOCK
   155	000072'	261740	000012	00210		PUSH P,BLK		;SAVE NUMBER
   156	000073'	261753	000022*	00220		PUSH P,BUFDTA(BUF)	;AND THE BLOCK IT POINTS TO
   157	000074'	201500	000001	00230		MOVEI BLK,1
   158	000075'	260740	000071*	00240		PUSHJ P,RDBUF
   159	000076'	262753	000001*	00250		POP P,BUFDTA+1(BUF)	;UPDATE FREE POINTER
   160	000077'	260740	000066*	00260		PUSHJ P,WRTBUF
   161	000100'	262740	000012	00270		POP P,BLK
   162	000101'	254000	000056*	00280		JRST ZRBUF		;GO ZEROO NEW BLOCK
RRMD - HANDLE REMIND CODE	MACRO 12.5-46.0 21:52  2-MAR-81 PAGE 4
RRMD.MAC	12-APR-78 19:38	

   163				00010	;INSERT A NEW FILE NAME
   164
   165	000102'	051140	000523'	00030	INSFIL:	OUTSTR [ASCIZ /Name: /]
   166	000103'	066040	000000	00040		INPUT TTY,0		;GET A FRESH LINE
   167	000104'	260740	000000'	00050		PUSHJ P,RDFNM
   168	000105'	260740	000017'	00060		PUSHJ P,SRCREM		;LOOK FOR IT
   169	000106'	334000	000000	00070		 SKIPA
   170	000107'	254000	000151'	00080		JRST DUPFIL
   171	000110'	336500	000520'	00090	INSF1:	SKIPN BLK,SPCBLK	;IS THERE ONE WITH SPACE?
   172	000111'	254000	000135'	00100		JRST NEWFBK		;NO, NEED A NEW ONE
   173	000112'	260740	000075*	00110		PUSHJ P,RDBUF		;GET THAT BLOCK
   174	000113'	261753	000000*	00120		PUSH P,BUFBLK(BUF)	;SAVE OLD LOCK CODE
   175	000114'	205040	400000	00130		MOVSI T1,400000
   176	000115'	436053	000113*	00140		IORM T1,BUFBLK(BUF)	;AND LOCK IT (IN CASE BLK 1)
   177	000116'	261740	000012	00150		PUSH P,BLK		;SAVE BLOCK NUMBER
   178	000117'	260740	000051'	00160		PUSHJ P,REMGET		;GET A FREE BLOCK
   179	000120'	250517	000000	00170		EXCH BLK,(P)		;GET THE ONE WITH SPACE
   180	000121'	260740	000112*	00180		PUSHJ P,RDBUF
   181	000122'	505040	000467'	00190		HRLI T1,NAMBUF
   182	000123'	540053	000073*	00200		HRR T1,BUFDTA(BUF)	;GET FREE SPACE POINTER
   183	000124'	271053	000001*	00210		ADDI T1,BUFDTA+1(BUF)		;POINT TO REAL BUFFER
   184	000125'	550100	000001	00220		HRRZ T2,T1
   185	000126'	251042	000005	00230		BLT T1,5(T2)		;MOVE IT
   186	000127'	262742	777777	00240		POP P,-1(T2)	;PUT IN THE BLOCK NUMBER
   187	000130'	201040	000007	00250		MOVEI T1,7
   188	000131'	272053	000123*	00260		ADDM T1,BUFDTA(BUF)	;UPDATE FREE SPACE
   189	000132'	260740	000077*	00270		PUSHJ P,WRTBUF		;WRITE IT OUT
   190	000133'	262753	000115*	00280		POP P,BUFBLK(BUF)	;UNLOCK IF WAS UNLOCKED
   191	000134'	254000	000000*	00290		JRST CMD
   192
   193	000135'	260740	000051'	00310	NEWFBK:	PUSHJ P,REMGET		;GET A NEW BLOCK FOR FILE NAMES
   194	000136'	260740	000121*	00320		PUSHJ P,RDBUF
   195	000137'	201040	000003	00330		MOVEI T1,3
   196	000140'	202053	000131*	00340		MOVEM T1,BUFDTA(BUF)	;SET FREE SPACE POINTER
   197	000141'	260740	000132*	00350		PUSHJ P,WRTBUF
   198	000142'	202500	000520'	00360		MOVEM BLK,SPCBLK
   199	000143'	200500	000517'	00370		MOVE BLK,LFBLK
   200	000144'	260740	000136*	00380		PUSHJ P,RDBUF
   201	000145'	200040	000520'	00390		MOVE T1,SPCBLK		;LINK IT IN
   202	000146'	202053	000002*	00400		MOVEM T1,BUFDTA+2(BUF)
   203	000147'	260740	000141*	00410		PUSHJ P,WRTBUF
   204	000150'	254000	000110'	00420		JRST INSF1		;FINISH INSERT
   205
   206	000151'	051140	000525'	00440	DUPFIL:	OUTSTR [ASCIZ /Name already entered./]
   207	000152'	254000	000134*	00450		JRST CMD
RRMD - HANDLE REMIND CODE	MACRO 12.5-46.0 21:52  2-MAR-81 PAGE 5
RRMD.MAC	12-APR-78 19:38	

   208				00010	;LIST ALL FILE NAMES PRESENT
   209
   210	000153'	201500	000001	00030	LSTFIL:	MOVEI BLK,1
   211	000154'	260740	000144*	00040	LFENXB:	PUSHJ P,RDBUF
   212	000155'	201053	000003*	00050		MOVEI T1,BUFDTA+3(BUF)
   213	000156'	505040	777757	00060		HRLI T1,-^D17
   214	000157'	336001	000000	00070	LFNXF:	SKIPN (T1)	;POINTS SOMEWHERE?
   215	000160'	254000	000167'	00080		JRST LFEBLK	;NO, NEXT BLOCK
   216	000161'	336001	000001	00090		SKIPN 1(T1)	;A REAL NAME?
   217	000162'	254000	000165'	00100		JRST LFNXT	;NO
   218	000163'	051141	000001	00110		OUTSTR 1(T1)	;PRINT IT
   219				00120		OUTSTR [ASCIZ /
   220	000164'	051140	000532'	00130	/]
   221	000165'	271040	000006	00140	LFNXT:	ADDI T1,6
   222	000166'	253040	000157'	00150		AOBJN T1,LFNXF
   223	000167'	332513	000002*	00160	LFEBLK:	SKIPE BLK,BUFDTA+2(BUF)
   224	000170'	254000	000154'	00170		JRST LFENXB	;MORE BLOCKS
   225	000171'	254000	000152*	00180		JRST CMD	;DONE
   226
   227	000172'	051140	000523'	00200	DELFIL:	OUTSTR [ASCIZ /Name: /]
   228	000173'	066040	000000	00210		INPUT TTY,0
   229	000174'	260740	000000'	00220		PUSHJ P,RDFNM
   230	000175'	332000	000467'	00230		SKIPE NAMBUF		;ZERO NAME NOT ALLOWED
   231	000176'	260740	000017'	00240		PUSHJ P,SRCREM
   232	000177'	254000	000233'	00250		 JRST NORMFL
   233	000200'	261741	000000	00260		PUSH P,(T1)	;THIS IS THE BLOCK WHICH GETS FREED UP
   234	000201'	211100	000007	00270		MOVNI T2,7
   235	000202'	272113	000140*	00280		ADDM T2,BUFDTA(BUF)	;MORE FREE NOW
   236	000203'	505101	000007	00290		HRLI T2,7(T1)
   237	000204'	540100	000001	00300		HRR T2,T1
   238	000205'	251113	000170*	00310		BLT T2,BUFDTA+170(BUF)	;MOVE THINGS UP
   239	000206'	402013	000163*	00320		SETZM BUFDTA+163(BUF)
   240	000207'	505053	000163*	00330		HRLI T1,BUFDTA+163(BUF)
   241	000210'	541053	000164*	00340		HRRI T1,BUFDTA+164(BUF)
   242	000211'	251053	000171*	00350		BLT T1,BUFDTA+171(BUF)
   243	000212'	260740	000147*	00360		PUSHJ P,WRTBUF		;NOW IS IS WRITTEN
   244	000213'	201500	000001	00370		MOVEI BLK,1
   245	000214'	260740	000154*	00380		PUSHJ P,RDBUF
   246	000215'	261753	000001*	00390		PUSH P,BUFDTA+1(BUF)	;SAVE FIRST FREE BLOCK
   247	000216'	200517	777777	00400		MOVE BLK,-1(P)		;START OF CHAIN TO PUT ON LIST
   248	000217'	260740	000214*	00410	DLFL2:	PUSHJ P,RDBUF
   249	000220'	336053	000202*	00420		SKIPN T1,BUFDTA(BUF)	;IS IT LINKED??
   250	000221'	254000	000224'	00430		JRST DLFL1		;NO, END OF CHAIN
   251	000222'	200500	000001	00440		MOVE BLK,T1
   252	000223'	254000	000217'	00450		JRST DLFL2		;EXAMINE TO END
   253	000224'	262753	000220*	00460	DLFL1:	POP P,BUFDTA(BUF)	;LINK IT UP
   254	000225'	260740	000212*	00470		PUSHJ P,WRTBUF
   255	000226'	201500	000001	00480		MOVEI BLK,1		;NOW PUT IN FIRST BLOCK
   256	000227'	260740	000217*	00490		PUSHJ P,RDBUF
   257	000230'	262753	000001*	00500		POP P,BUFDTA+1(BUF)
   258	000231'	260740	000225*	00510		PUSHJ P,WRTBUF
   259	000232'	254000	000171*	00520		JRST CMD
   260
RRMD - HANDLE REMIND CODE	MACRO 12.5-46.0 21:52  2-MAR-81 PAGE 5-2
RRMD.MAC	12-APR-78 19:38	

   261	000233'	051140	000533'	00540	NORMFL:	OUTSTR [ASCIZ /No file by that name./]
   262	000234'	254000	000232*	00550		JRST CMD
RRMD - HANDLE REMIND CODE	MACRO 12.5-46.0 21:52  2-MAR-81 PAGE 6
RRMD.MAC	12-APR-78 19:38	

   263	000235'	051140	000540'	00010	CHGFIL:	OUTSTR [ASCIZ /Old name /]
   264	000236'	066040	000000	00020		INPUT TTY,0
   265	000237'	260740	000000'	00030		PUSHJ P,RDFNM
   266	000240'	332000	000467'	00040		SKIPE NAMBUF	;KEEP BLANK FILE THE SAME
   267	000241'	260740	000017'	00050		PUSHJ P,SRCREM
   268	000242'	254000	000233'	00060		 JRST NORMFL
   269	000243'	274040	000013	00070		SUB T1,BUF	;THIS IS THE POINTER TO IT, MAKE RELATIVE
   270	000244'	261740	000001	00080		PUSH P,T1
   271	000245'	261740	000012	00090		PUSH P,BLK
   272	000246'	051140	000542'	00100		OUTSTR [ASCIZ /New name /]
   273	000247'	066040	000000	00110		INPUT TTY,0
   274	000250'	260740	000000'	00120		PUSHJ P,RDFNM
   275	000251'	260740	000017'	00130		PUSHJ P,SRCREM
   276	000252'	334000	000000	00140		 SKIPA
   277	000253'	254000	000265'	00150		JRST CHGTNW
   278	000254'	262740	000012	00160		POP P,BLK
   279	000255'	260740	000227*	00170		PUSHJ P,RDBUF	;GET SET TO CHANGE THAT BLOCK
   280	000256'	262740	000001	00180		POP P,T1
   281	000257'	270040	000013	00190		ADD T1,BUF
   282	000260'	505100	000467'	00200		HRLI T2,NAMBUF
   283	000261'	541101	000001	00210		HRRI T2,1(T1)
   284	000262'	251101	000007	00220		BLT T2,7(T1)
   285	000263'	260740	000231*	00230		PUSHJ P,WRTBUF
   286	000264'	254000	000234*	00240		JRST CMD
   287
   288	000265'	262740	000001	00260	CHGTNW:	POP P,T1
   289	000266'	262740	000001	00270		POP P,T1
   290	000267'	254000	000151'	00280		JRST DUPFIL
RRMD - HANDLE REMIND CODE	MACRO 12.5-46.0 21:52  2-MAR-81 PAGE 7
RRMD.MAC	12-APR-78 19:38	

   291				00010	;CODE TO HANDLE REMINDERS
   292
   293	000270'	260740	000000'	00030	INSREM:	PUSHJ P,RDFNM		;IN CASE FILE SPECIFIED
   294	000271'	260740	000017'	00040		PUSHJ P,SRCREM		;FIND THAT ONE
   295	000272'	254000	000233'	00050		 JRST NORMFL		;NOT THERE
   296	000273'	200501	000000	00060		MOVE BLK,(T1)		;WHERE TO PUT THINGS
   297	000274'	051140	000544'	00070		OUTSTR [ASCIZ /Reminder: /]
   298	000275'	066040	000000	00080		INPUT TTY,0
   299	000276'	201040	000073	00090		MOVEI T1,^D59		;NUMBER OF CHRS
   300	000277'	260740	000001'	00100		PUSHJ P,RDNAM
   301	000300'	260740	000255*	00110	INSRM3:	PUSHJ P,RDBUF
   302	000301'	201053	000001*	00120		MOVEI T1,BUFDTA+1(BUF)	;LOOK FOR A PLACE TO PUT IT
   303	000302'	505040	777766	00130		HRLI T1,-^D10
   304	000303'	336001	000000	00140	INSRM2:	SKIPN (T1)
   305	000304'	254000	000313'	00150		JRST INSRM1			;FOUND A PLACE
   306	000305'	271040	000013	00160		ADDI T1,13
   307	000306'	253040	000303'	00170		AOBJN T1,INSRM2
   308	000307'	336053	000224*	00180		SKIPN T1,BUFDTA(BUF)	;ANOTHER?
   309	000310'	254000	000320'	00190		JRST IRMNBK		;NO, NEED A NEW BLOCK
   310	000311'	200500	000001	00200		MOVE BLK,T1
   311	000312'	254000	000300'	00210		JRST INSRM3
   312
   313	000313'	505100	000467'	00230	INSRM1:	HRLI T2,NAMBUF
   314	000314'	540100	000001	00240		HRR T2,T1
   315	000315'	251101	000013	00250		BLT T2,13(T1)
   316	000316'	260740	000263*	00260		PUSHJ P,WRTBUF
   317	000317'	254000	000264*	00270		JRST CMD
   318
   319	000320'	261753	000133*	00290	IRMNBK:	PUSH P,BUFBLK(BUF)	;LOCK THIS ONE DOWN
   320	000321'	205040	400000	00300		MOVSI T1,400000
   321	000322'	436053	000320*	00310		IORM T1,BUFBLK(BUF)
   322	000323'	261740	000012	00320		PUSH P,BLK
   323	000324'	260740	000051'	00330		PUSHJ P,REMGET
   324	000325'	260740	000300*	00340		PUSHJ P,RDBUF
   325	000326'	505100	000467'	00350		HRLI T2,NAMBUF
   326	000327'	541113	000001*	00360		HRRI T2,BUFDTA+1(BUF)
   327	000330'	251113	000014*	00370		BLT T2,BUFDTA+14(BUF)
   328	000331'	260740	000316*	00380		PUSHJ P,WRTBUF	;WRITE THIS ONE OUT
   329	000332'	250517	000000	00390		EXCH BLK,(P)
   330	000333'	260740	000325*	00400		PUSHJ P,RDBUF		;GET PREVIOUS LAST
   331	000334'	262753	000307*	00410		POP P,BUFDTA(BUF)	;LINK IT
   332	000335'	260740	000331*	00420		PUSHJ P,WRTBUF
   333	000336'	262753	000322*	00430		POP P,BUFBLK(BUF)
   334	000337'	254000	000317*	00440		JRST CMD
RRMD - HANDLE REMIND CODE	MACRO 12.5-46.0 21:52  2-MAR-81 PAGE 8
RRMD.MAC	12-APR-78 19:38	

   335	000340'	260740	000000'	00010	LSTREM:	PUSHJ P,RDFNM
   336	000341'	260740	000017'	00020		PUSHJ P,SRCREM
   337	000342'	254000	000233'	00030		 JRST NORMFL
   338	000343'	200501	000000	00040		MOVE BLK,(T1)
   339	000344'	201140	000001	00050		MOVEI T3,1		;COUNT
   340	000345'	260740	000333*	00060	LNXRM2:	PUSHJ P,RDBUF
   341	000346'	201053	000001*	00070		MOVEI T1,BUFDTA+1(BUF)
   342	000347'	505040	777766	00080		HRLI T1,-^D10
   343	000350'	336001	000000	00090	LNXRM1:	SKIPN (T1)
   344	000351'	254000	000360'	00100		JRST LNXRM
   345	000352'	261740	000003	00110		PUSH P,T3
   346	000353'	260740	000000*	00120		PUSHJ P,OUTNUM
   347	000354'	262740	000003	00130		POP P,T3
   348	000355'	051140	000547'	00140		OUTSTR [ASCIZ /: /]
   349	000356'	051141	000000	00150		OUTSTR (T1)
   350				00160		OUTSTR [ASCIZ /
   351	000357'	051140	000532'	00170	/]
   352	000360'	271040	000013	00180	LNXRM:	ADDI T1,13
   353	000361'	271140	000001	00190		ADDI T3,1
   354	000362'	253040	000350'	00200		AOBJN T1,LNXRM1
   355	000363'	332513	000334*	00210		SKIPE BLK,BUFDTA(BUF)
   356	000364'	254000	000345'	00220		JRST LNXRM2
   357	000365'	254000	000337*	00230		JRST CMD
   358
   359	000366'	260740	000000'	00250	DELREM:	PUSHJ P,RDFNM
   360	000367'	260740	000017'	00260		PUSHJ P,SRCREM
   361	000370'	254000	000233'	00270		 JRST NORMFL
   362	000371'	200501	000000	00280		MOVE BLK,(T1)
   363	000372'	051140	000550'	00290		OUTSTR [ASCIZ /Number(s) /]
   364	000373'	260740	000000*	00300		PUSHJ P,SCANI
   365	000374'	606000	000002	00310	DLRM1:	TRNN FL,NUMF
   366	000375'	254000	000465'	00320		JRST NONUM
   367	000376'	261740	000012	00330		PUSH P,BLK
   368	000377'	261740	000003	00340		PUSH P,T3
   369	000400'	260740	000424'	00350		PUSHJ P,LOCREM		;FIND THAT REMINDER NUMBER
   370	000401'	254000	000416'	00360		 JRST DLRMNN	;NOT THERE
   371	000402'	402003	000000	00370		SETZM (T3)
   372	000403'	544040	000003	00380		HLR T1,T3
   373	000404'	541043	000001	00390		HRRI T1,1(T3)
   374	000405'	251043	000013	00400		BLT T1,13(T3)		;ZERO REMINDER
   375	000406'	262740	000003	00410		POP P,T3
   376	000407'	260740	000335*	00420		PUSHJ P,WRTBUF
   377	000410'	262740	000012	00430		POP P,BLK
   378	000411'	260740	000000*	00440		PUSHJ P,SCAN
   379	000412'	603640	000007*	00450		TLNE CS,TERMF
   380	000413'	254000	000365*	00460		JRST CMD
   381	000414'	326640	000411'	00470		JUMPN CS,.-3
   382	000415'	254000	000374'	00480		JRST DLRM1
RRMD - HANDLE REMIND CODE	MACRO 12.5-46.0 21:52  2-MAR-81 PAGE 9
RRMD.MAC	12-APR-78 19:38	

   383	000416'	051140	000553'	00010	DLRMNN:	OUTSTR [ASCIZ /No such entry /]
   384	000417'	262740	000003	00020		POP P,T3
   385	000420'	262740	000004	00030		POP P,T4
   386	000421'	260740	000353*	00040		PUSHJ P,OUTNUM
   387	000422'	051700	000056	00050		OUTCHI "."
   388	000423'	254000	000413*	00060		JRST CMD
   389
   390	000424'	260740	000345*	00080	LOCREM:	PUSHJ P,RDBUF
   391	000425'	303140	000012	00090		CAILE T3,^D10		;IN THIS BUFFER?
   392	000426'	254000	000435'	00100		JRST DLRMBK		;NO
   393	000427'	275140	000001	00110		SUBI T3,1
   394	000430'	221140	000014	00120		IMULI T3,14		;ENTRY SIZE
   395	000431'	271153	000001*	00130		ADDI T3,BUFDTA+1(BUF)	;POINT TO ENTRY
   396	000432'	332003	000000	00140		SKIPE (T3)
   397	000433'	350017	000000	00150		AOS (P)
   398	000434'	263740	000000	00160		POPJ P,			;NORMAL RETURN IF NOT THERE
   399
   400	000435'	275140	000012	00180	DLRMBK:	SUBI T3,^D10
   401	000436'	332513	000363*	00190		SKIPE BLK,BUFDTA(BUF)
   402	000437'	254000	000424'	00200		JRST LOCREM
   403	000440'	263740	000000	00210		POPJ P,			;MUST NOT BE THERE
   404
   405	000441'	260740	000000'	00230	CHGREM:	PUSHJ P,RDFNM
   406	000442'	260740	000017'	00240		PUSHJ P,SRCREM
   407	000443'	254000	000233'	00250		 JRST NORMFL
   408	000444'	200501	000000	00260		MOVE BLK,(T1)
   409	000445'	051140	000556'	00270		OUTSTR [ASCIZ /Number: /]
   410	000446'	260740	000373*	00280		PUSHJ P,SCANI
   411	000447'	606000	000002	00290		TRNN FL,NUMF
   412	000450'	254000	000465'	00300		JRST NONUM
   413	000451'	260740	000424'	00310		PUSHJ P,LOCREM
   414	000452'	254000	000416'	00320		 JRST DLRMNN
   415	000453'	051140	000544'	00330		OUTSTR [ASCIZ /Reminder: /]
   416	000454'	066040	000000	00340		INPUT TTY,0
   417	000455'	201040	000073	00350		MOVEI T1,^D59
   418	000456'	260740	000001'	00360		PUSHJ P,RDNAM
   419	000457'	505040	000467'	00370		HRLI T1,NAMBUF
   420	000460'	540040	000003	00380		HRR T1,T3
   421	000461'	251043	000013	00390		BLT T1,13(T3)
   422	000462'	260740	000407*	00400		PUSHJ P,WRTBUF
   423	000463'	254000	000423*	00410		JRST CMD
   424
   425	000464'	476000	000000*	00430	NONUM0:	SETOM DATTIM
   426	000465'	051140	000560'	00440	NONUM:	OUTSTR [ASCIZ /Not a number./]
   427	000466'	254000	000463*	00450		JRST CMD
   428
   429
   430	000467'			00480	NAMBUF:	BLOCK 30
   431
   432				00500		END
   433
NO ERRORS DETECTED
RRMD - HANDLE REMIND CODE	MACRO 12.5-46.0 21:52  2-MAR-81 PAGE 9-2
RRMD.MAC	12-APR-78 19:38	

PROGRAM BREAK IS 000563
3K CORE USED
RRMD - HANDLE REMIND CODE	MACRO 12.5-46.0 21:52  2-MAR-81 PAGE 10
RRMD.MAC	12-APR-78 19:38		SYMBOL TABLE

BLK		000012		LOCREM		000424'		
BUF		000013		LSTFIL		000153'	INT	
BUFBLK		000336'	EXT	LSTREM		000340'	INT	
BUFDTA		000436'	EXT	MAL		000003	SPD	
C		000014		MALHSH		000177	SPD	
CHGFIL		000235'	INT	NAMBUF		000467'	INT	
CHGREM		000441'	INT	NAMCHR		000015'		
CHGTNW		000265'		NEWFBK		000135'		
CIRC		000400	SPD	NONUM		000465'	INT	
CMD		000466'	EXT	NONUM0		000464'	INT	
CODE		000006		NORMFL		000233'		
CPOPJ1		000042'	EXT	NOUPDR		000061'	EXT	
CS		000015		NUMF		000002	SPD	
DATSIZ		000156	SPD	OUTCHI	051700	000000		
DATTIM		000464'	EXT	OUTNUM		000421'	EXT	
DCNT		000010		OUTSTR	051140	000000		
DELFIL		000172'	INT	P		000017		
DELREM		000366'	INT	P2		000016		
DIPRS		400000	SPD	PDLSZ		000040	SPD	
DLFL1		000224'		PDLSZ2		000020	SPD	
DLFL2		000217'		RDBUF		000424'	EXT	
DLRM1		000374'		RDFNM		000000'		
DLRMBK		000435'		RDNAM		000001'	INT	
DLRMNN		000416'		RDNAM1		000007'		
DPTR		000011		REM		000002	SPD	
DSPIND		200000	SPD	REMGET		000051'	INT	
DUPFIL		000151'		REMSIZ		000054'	EXT	
FBEF		000100	SPD	RGOLD		000071'		
FEXCPT		000010	SPD	RSTERR		100000	SPD	
FL		000000		SCAN		000411'	EXT	
FNEED1		000004	SPD	SCANI		000446'	EXT	
FRDATE		000040	SPD	SCRCNM		000027'		
FREF		000020	SPD	SCREBK		000045'		
FREF2		000200	SPD	SCRNXN		000043'		
GETREM		000060'	EXT	SETPRI		040000	SPD	
GETTY		000015'	EXT	SPCBLK		000520'	INT	
IDF		000001	SPD	SRCREM		000017'		
INSF1		000110'		SRCRM1		000021'		
INSFIL		000102'	INT	STPSCN		020000	SPD	
INSREM		000270'	INT	T1		000001		
INSRM1		000313'		T2		000002		
INSRM2		000303'		T3		000003		
INSRM3		000300'		T4		000004		
IRMNBK		000320'		T5		000005		
ITEM		000007		TERMF		000412'	EXT	
LFBLK		000517'		TTY		000001	SPD	
LFEBLK		000167'		WRTBUF		000462'	EXT	
LFENXB		000154'		ZRBUF		000101'	EXT	
LFNXF		000157'		
LFNXT		000165'		
LNXRM		000360'		
LNXRM1		000350'		

RRMD - HANDLE REMIND CODE	MACRO 12.5-46.0 21:52  2-MAR-81
RRMD.MAC	12-APR-78 19:38		Symbol cross reference

BLK	    13#	   109	   114	   131	   132	   137	   139	   140	   146	   147	   151	   155	   157	   161
	   171	   177	   179	   198	   199	   210	   223	   244	   247	   251	   255	   271	   278	   296
	   310	   322	   329	   338	   355	   362	   367	   377	   401	   408
BUF	    12#	   112	   115	   132	   139	   149	   156	   159	   174	   176	   182	   183	   188	   190
	   196	   202	   212	   223	   235	   238	   239	   240	   241	   242	   246	   249	   253	   257
	   269	   281	   302	   308	   319	   321	   326	   327	   331	   333	   341	   355	   395	   401
BUFBLK	    78%	   174	   176	   190	   319	   321	   333
BUFDTA	    78%	   112	   115	   132	   139	   149	   156	   159	   182	   183	   188	   196	   202	   212
	   223	   235	   238	   239	   240	   241	   242	   246	   249	   253	   257	   302	   308	   326
	   327	   331	   341	   355	   395	   401
C	    11#	   100	   103
CHGFIL	    72	   263#
CHGREM	    72	   405#
CHGTNW	   277	   288#
CIRC	    29#
CMD	    81%	   191	   207	   225	   259	   262	   286	   317	   334	   357	   380	   388	   423	   427
CODE	    17#
CPOPJ1	    83%	   128
CS	    10#	    97	    98	   379	   381
DATSIZ	    49#
DATTIM	    85%	   425
DCNT	    15#
DELFIL	    72	   227#
DELREM	    72	   359#
DIPRS	    37#
DLFL1	   250	   253#
DLFL2	   248#	   252
DLRM1	   365#	   382
DLRMBK	   392	   400#
DLRMNN	   370	   383#	   414
DPTR	    14#
DSPIND	    38#
DUPFIL	   170	   206#	   290
FBEF	    27#
FEXCPT	    24#
FL	     1#	   365	   411
FNEED1	    23#
FRDATE	    26#
FREF	    25#
FREF2	    28#
GETREM	    78%	   144
GETTY	    76%	    96	   104
IDF	    21#
INSF1	   171#	   204
INSFIL	    72	   165#
INSREM	    72	   293#
INSRM1	   305	   313#
INSRM2	   304#	   307
INSRM3	   301#	   311
IRMNBK	   309	   319#
ITEM	    16#
LFBLK	   131#	   131	   199
LFEBLK	   215	   223#
RRMD - HANDLE REMIND CODE	MACRO 12.5-46.0 21:52  2-MAR-81
RRMD.MAC	12-APR-78 19:38		Symbol cross reference

LFENXB	   211#	   224
LFNXF	   214#	   222
LFNXT	   217	   221#
LNXRM	   344	   352#
LNXRM1	   343#	   354
LNXRM2	   340#	   356
LOCREM	   369	   390#	   402	   413
LSTFIL	    72	   210#
LSTREM	    73	   335#
MAL	    33#
MALHSH	    47#
NAMBUF	    73	    92	    93	    94	    95	   120	   126	   181	   230	   266	   282	   313	   325	   419
	   430#
NAMCHR	   101	   102	   104#
NEWFBK	   172	   193#
NONUM	    73	   366	   412	   426#
NONUM0	    73	   425#
NORMFL	   232	   261#	   268	   295	   337	   361	   407
NOUPDR	    78%	   145
NUMF	    22#	   365	   411
OUTNUM	    83%	   346	   386
P	     8#	    96	    99	   104	   111	   134	   138	   142	   144	   146	   148	   150	   151	   152
	   154	   155	   156	   158	   159	   160	   161	   167	   168	   173	   174	   177	   178	   179
	   180	   186	   189	   190	   193	   194	   197	   200	   203	   211	   229	   231	   233	   243
	   245	   246	   247	   248	   253	   254	   256	   257	   258	   265	   267	   270	   271	   274
	   275	   278	   279	   280	   285	   288	   289	   293	   294	   300	   301	   316	   319	   322
	   323	   324	   328	   329	   330	   331	   332	   333	   335	   336	   340	   345	   346	   347
	   359	   360	   364	   367	   368	   369	   375	   376	   377	   378	   384	   385	   386	   390
	   397	   398	   403	   405	   406	   410	   413	   418	   422
P2	     9#
PDLSZ	    43#
PDLSZ2	    44#
RDBUF	    78%	   111	   138	   148	   154	   158	   173	   180	   194	   200	   211	   245	   248	   256
	   279	   301	   324	   330	   340	   390
RDFNM	    91#	   167	   229	   265	   274	   293	   335	   359	   405
RDNAM	    73	    92#	   300	   418
RDNAM1	    98#	   105
REM	    32#	   143
REMGET	    73	   137#	   178	   193	   323
REMSIZ	    79%	   140
RGOLD	   141	   154#
RSTERR	    39#
SCAN	    76%	   378
SCANI	    76%	   364	   410
SCRCNM	   117#	   130
SCREBK	   118	   131#
SCRNXN	   121	   129#
SETPRI	    40#
SPCBLK	    73	   110#	   110	   114	   171	   198	   201
SRCREM	   109#	   168	   231	   267	   275	   294	   336	   360	   406
SRCRM1	   111#	   133
STPSCN	    41#
T1	     2#	    91	   102	   112	   113	   115	   116	   117	   119	   123	   129	   130	   175	   176
RRMD - HANDLE REMIND CODE	MACRO 12.5-46.0 21:52  2-MAR-81
RRMD.MAC	12-APR-78 19:38		Symbol cross reference

	   181	   182	   183	   184	   185	   187	   188	   195	   196	   201	   202	   212	   213	   214	   216
	   218	   221	   222	   233	   236	   237	   240	   241	   242	   249	   251	   269	   270	   280
	   281	   283	   284	   288	   289	   296	   299	   302	   303	   304	   306	   307	   308	   310
	   314	   315	   320	   321	   338	   341	   342	   343	   349	   352	   354	   362	   372	   373
	   374	   408	   417	   419	   420	   421
T2	     3#	    93	    94	    95	   103	   119	   120	   122	   124	   126	   127	   128	   184	   185
	   186	   234	   235	   236	   237	   238	   282	   283	   284	   313	   314	   315	   325	   326
	   327
T3	     4#	   123	   124	   125	   339	   345	   347	   353	   368	   371	   372	   373	   374	   375
	   384	   391	   393	   394	   395	   396	   400	   420	   421
T4	     5#	   125	   126	   385
T5	     6#
TERMF	    76%	    98	   379
TTY	    31#	   166	   228	   264	   273	   298	   416
WRTBUF	    78%	   150	   160	   189	   197	   203	   243	   254	   258	   285	   316	   328	   332	   376
	   422
ZRBUF	    78%	   142	   162
RRMD - HANDLE REMIND CODE	MACRO 12.5-46.0 21:52  2-MAR-81
RRMD.MAC	12-APR-78 19:38		Macro/Opdef cross reference

OUTCHI	   387
OUTSTR	   165	   206	   218	   219	   227	   261	   263	   272	   297	   348	   349	   350	   363	   383
	   409	   415	   426
TABLE	    60#
WRD	    53#    rio - io routines for remind and sec	MACRO 12.5-46.0 21:52  2-MAR-81 PAGE 1
RPARAM.MAC	12-APR-78 19:35	

     1			000000	00100	FL=0
     2			000001	00200	T1=1
     3			000002	00300	T2=2
     4			000003	00400	T3=3
     5			000004	00500	T4=4
     6			000005	00600	t5=5
     7
     8			000017	00800	P=17
     9			000016	00900	P2=16
    10			000015	01000	CS=15		;CHARACTER FLAGS
    11			000014	01100	C=14		;CHARACTER
    12			000013	01200	BUF=13
    13			000012	01300	BLK=12
    14			000011	01400	DPTR=11		;POINTER TO DATE STRING
    15			000010	01500	DCNT=10		;NUMBER OF CHRS LEFT TO PUT IN DATE STRING
    16			000007	01600	ITEM=7	;BACK FROM THE SCANNER
    17			000006	01700	CODE=6		;ALSO BACK FROM THE SCANER
    18
    19				01900	;FLAGS IN F (RH)
    20
    21			000001	02100	IDF==1		;IDENT SEEN BY SCANNER
    22			000002	02200	NUMF==2		;NUMBER SEEN BY SCANNER
    23			000004	02300	FNEED1==4	;FLAG FOR DATES, A DATE NEEDED
    24			000010	02400	FEXCPT==10	;FLAG FOR DATES, IN EXCEPT
    25			000020	02500	FREF==20	;FLAG FOR DATES, READ A REFERENCE (ETC.) DATE
    26			000040	02600	FRDATE==40	;FLAG FOR DATES, REAL DATE (USED BY REF)
    27			000100	02700	FBEF==100	;IN A BEFORE OR AFTER STREAM
    28			000200	02800	FREF2==200	;FLAG FOR BETWEEN ( IS PERMITTED ELSE LIKE FREF
    29			000400	02900	circ==400	;flag for circuit built (alarm)
    30
    31			000001	03100	TTY==1
    32			000002	03200	REM==2
    33			000003	03300	MAL==3		;MAILBOX
    34
    35				03500	;FLAGS IN LH OF COMMAND TABLE
    36
    37			400000	03700	DIPRS==400000	;DISPATCH ADDRESS PRESENT
    38			200000	03800	DSPIND==200000		;DISPATCH INCREMENT PRESENT
    39			100000	03900	RSTERR==100000		;RESET ERROR TABLE
    40			040000	04000	SETPRI==040000		;"PRIMARY" COMMAND
    41			020000	04100	STPSCN==020000		;DISPATCH NOW, END OF COMMAND
    42
    43			000040	04300	PDLSZ==40
    44			000020	04400	PDLSZ2==20
    45
    46
    47			000177	04700	MALHSH==177	;HASH FOR LOOKING AT MAILBOX
    48
    49			000156	04900	DATSIZ==^D110	;SIZE OF DATE STORAGE (MAX)
rio - io routines for remind and sec	MACRO 12.5-46.0 21:52  2-MAR-81 PAGE 2
RPARAM.MAC	12-APR-78 19:35	

    50				00100	;DEFINITION OF MACRO TO GENERATE THE FIRST 3 WORDS OF SIXBIT
    51
    52				00300		DEFINE WRD(A,B)
    53				00400	<ZZ==0
    54				00500	ZZ1==0
    55				00600		IRPC A,<ZZ=ZZ+1
    56				00700	IFG ZZ-B,<IFLE ZZ-B-6,<ZZ1==ZZ1_6+''A''>>>
    57				00800	IFL ZZ-B-6,<ZZ1==ZZ1_<<B+6-ZZ>*6>>
    58				00900		ZZ1>
    59				01000		DEFINE TABLE (A)
    60				01100	<	DEFINE X(B,C,D,E)
    61				01200	<	WRD (B,0)>
    62				01300		A
    63				01400		DEFINE X(B,C,D,E)
    64				01500	<	WRD (B,6)>
    65				01600		A
    66				01700		DEFINE X(B,C,D,E)
    67				01800	<	WRD (B,^D12)>
    68				01900		A>
rio - io routines for remind and sec	MACRO 12.5-46.0 21:52  2-MAR-81 PAGE 1
RIO.MAC	12-APR-78 19:38	

    69				00100	title rio - io routines for remind and sec
    70
    71
    72				00300	external cpopj1
    73				00400	internal bufini,opnrem,bufblk,bufdta,rdbuf,wrtbuf,zrbuf
    74				00500	internal getrem,noupdr,remsiz,nodsk
rio - io routines for remind and sec	MACRO 12.5-46.0 21:52  2-MAR-81 PAGE 2
RIO.MAC	12-APR-78 19:38	

    75				00100	;buffer use code
    76
    77
    78			000004	00400	bufnum==4		;number of buffers
    79			000000	00500	bufblk==0		;where the block number goes
    80			000001	00600	buflnk==1		;link to next buffer
    81			000002	00700	bufiow==2		;iowd for input
    82			000004	00800	bufdta==4		;data
    83
    84	000000'	476000	001212'	01000	bufini:	setom filnum#	;set no file using buffers
    85	000001'	201040	000025'	01100		movei t1,bufr0
    86	000002'	202040	001214'	01200		movem t1,nxtbuf#	;pointer to next buffer
    87	000003'	402001	000000	01300	blkclr:	setzm bufblk(t1)
    88	000004'	550041	000001	01400		hrrz t1,buflnk(t1)	;say no block in buffer
    89	000005'	312040	001214'	01500		came t1,nxtbuf
    90	000006'	254000	000003'	01600		jrst blkclr
    91	000007'	263740	000000	01700		popj p,
    92
    93	000010'	316500	001212'	01900	newfil:	camn blk,filnum		;is it same as old?
    94	000011'	263740	000000	02000		popj p,			;yes, do noting
    95	000012'	260740	000000'	02100		pushj p,bufini
    96	000013'	202500	001212'	02200		movem blk,filnum
    97	000014'	137500	001216'	02300		dpb blk,[point 4,usowd,12]	;set words for uuo's
    98	000015'	137500	001217'	02400		dpb blk,[point 4,usiwd,12]
    99	000016'	137500	001220'	02500		dpb blk,[point 4,inwd,12]
   100	000017'	137500	001221'	02600		dpb blk,[point 4,outwd,12]
   101	000020'	263740	000000	02700		popj p,
   102
   103	000021'	075012	000000	02900	usowd:	useto (blk)
   104	000022'	074012	000000	03000	usiwd:	useti (blk)
   105	000023'	066013	000002	03100	inwd:	input bufiow(buf)
   106	000024'	067013	000002	03200	outwd:	output bufiow(buf)
   107
   108				03400		define cat(a,b)
   109				03500		<a'b>
   110
   111				03700		define bufer(n) <
   112				03800	bufr'n:	0
   113				03900		cat (bufr,\<n+1>)	;link
   114				04000		iowd 200,.+2
   115				04100		0
   116				04200		block 200
   117				04300	>
   118
   119			000000	04500		zz==0
   120				04600		repeat bufnum,<bufer(\zz)
   121				04700		zz==zz+1>
   122					bufer(\zz)^
   123	000025'	000000	000000		bufr0:	0
   124	000026'	000000	000231'			cat (bufr,\<0+1>)^bufr1^	;link
   125	000027'	777600	000030'			iowd 200,.+2
   126	000030'	000000	000000			0
   127			000001			zz==zz+1
rio - io routines for remind and sec	MACRO 12.5-46.0 21:52  2-MAR-81 PAGE 2-2
RIO.MAC	12-APR-78 19:38	

   128					bufer(\zz)^
   129	000231'	000000	000000		bufr1:	0
   130	000232'	000000	000435'			cat (bufr,\<1+1>)^bufr2^	;link
   131	000233'	777600	000234'			iowd 200,.+2
   132	000234'	000000	000000			0
   133			000002			zz==zz+1
   134					bufer(\zz)^
   135	000435'	000000	000000		bufr2:	0
   136	000436'	000000	000641'			cat (bufr,\<2+1>)^bufr3^	;link
   137	000437'	777600	000440'			iowd 200,.+2
   138	000440'	000000	000000			0
   139			000003			zz==zz+1
   140					bufer(\zz)^
   141	000641'	000000	000000		bufr3:	0
   142	000642'	000000	000025'			cat (bufr,\<3+1>)^bufr4^	;link
   143	000643'	777600	000644'			iowd 200,.+2
   144	000644'	000000	000000			0
   145			000004			zz==zz+1
   146
   147			000025'	04900	cat(bufr,\bufnum)^bufr4^==bufr0	;finish linking
rio - io routines for remind and sec	MACRO 12.5-46.0 21:52  2-MAR-81 PAGE 3
RIO.MAC	12-APR-78 19:38	

   148	001045'	200540	001214'	00100	fndbuf:	move buf,nxtbuf		;find the desired buffer or a free one
   149	001046'	550053	000000	00200	fndbf1:	hrrz t1,bufblk(buf)
   150	001047'	316040	000012	00300		camn t1,blk
   151	001050'	263740	000000	00400		popj p,
   152	001051'	550553	000001	00500		hrrz buf,buflnk(buf)
   153	001052'	312540	001214'	00600		came buf,nxtbuf
   154	001053'	254000	001046'	00700		jrst fndbf1
   155	001054'	350017	000000	00800		aos (p)			;must have found a new one
   156	001055'	331013	000000	00900	fndbf2:	skipl bufblk(buf)	;is it locked?
   157	001056'	254000	001064'	01000		jrst gotbuf
   158	001057'	550553	000001	01100		hrrz buf,buflnk(buf)
   159	001060'	312540	001214'	01200		came buf,nxtbuf
   160	001061'	254000	001055'	01300		jrst fndbf2
   161				01400		outstr [asciz /
   162	001062'	051140	001222'	01500	no free buffers/]
   163	001063'	047000	000012	01600		exit			;something bad in program
   164
   165	001064'	261753	000001	01800	gotbuf:	push p,buflnk(buf)
   166	001065'	262740	001214'	01900		pop p,nxtbuf		;use up another buffer
   167	001066'	263740	000000	02000		popj p,
   168
   169	001067'	260740	001045'	02200	rdbuf:	pushj p,fndbuf
   170	001070'	263740	000000	02300		 popj p,		;found in core and pointing
   171	001071'	202513	000000	02400		movem blk,bufblk(buf)	;set the block number
   172	001072'	256000	000022'	02500		xct usiwd
   173	001073'	256000	000023'	02600		xct inwd
   174	001074'	263740	000000	02700		popj p,
   175
   176	001075'	260740	001045'	02900	wrtbuf:	pushj p,fndbuf
   177	001076'	334000	000000	03000		 skipa	;found
   178	001077'	254000	001103'	03100		jrst illwrt		;not there, can not write
   179	001100'	256000	000021'	03200		xct usowd
   180	001101'	256000	000024'	03300		xct outwd
   181	001102'	263740	000000	03400		popj p,
   182
   183				03600	illwrt:	outstr [asciz /
   184	001103'	051140	001226'	03700	Program error writing illegal block/]
   185	001104'	047000	000012	03800		exit
   186
   187	001105'	260740	001045'	04000	zrbuf:	pushj p,fndbuf
   188	001106'	255000	000000	04100		 jfcl		;don't care if old or new
   189	001107'	542513	000000	04200		hrrm blk,bufblk(buf)	;may be locked
   190	001110'	505053	000004	04300		hrli t1,bufdta(buf)
   191	001111'	541053	000005	04400		hrri t1,bufdta+1(buf)
   192	001112'	402013	000004	04500		setzm bufdta(buf)
   193	001113'	251053	000203	04600		blt t1,bufdta+177(buf)
   194	001114'	256000	000021'	04700		xct usowd
   195	001115'	256000	000024'	04800		xct outwd
   196	001116'	263740	000000	04900		popj p,
rio - io routines for remind and sec	MACRO 12.5-46.0 21:52  2-MAR-81 PAGE 4
RIO.MAC	12-APR-78 19:38	

   197	001117'	041100	000016	00100	opnrem:	init rem,16
   198	001120'	446353	000000	00200		sixbit /dsk/
   199	001121'	000000	000000	00300		0
   200	001122'	254000	001206'	00400		jrst nodsk
   201	001123'	201500	000002	00500		movei blk,rem
   202	001124'	260740	000010'	00600		pushj p,newfil
   203	001125'	260740	001151'	00700	opnrm1:	pushj p,getrem		;try the lookup, enter
   204	001126'	254000	001132'	00800		 jrst crtrem		;not there
   205	001127'	307040	000001	00900		caig t1,1		;size, must be at least 2
   206	001130'	254000	001134'	01000		jrst inirem
   207	001131'	254000	001177'	01100		jrst setrem	;done use this file
   208	001132'	077100	001171'	01200	crtrem:	enter rem,remnam
   209	001133'	254000	001210'	01300		 jrst noupdr		;can not update it
   210	001134'	201500	000001	01400	inirem:	movei blk,1
   211	001135'	260740	001105'	01500		pushj p,zrbuf		;get a zero block for block 1
   212	001136'	201040	000012	01600		movei t1,12
   213	001137'	202053	000004	01700		movem t1,bufdta(buf)
   214	001140'	201040	000003	01800		movei t1,3
   215	001141'	202053	000005	01900		movem t1,bufdta+1(buf)
   216	001142'	201040	000002	02000		movei t1,2
   217	001143'	202053	000007	02100		movem t1,bufdta+3(buf)	;initialize it
   218	001144'	260740	001075'	02200		pushj p,wrtbuf
   219	001145'	201500	000002	02300		movei blk,2
   220	001146'	260740	001105'	02400		pushj p,zrbuf
   221	001147'	070100	000000	02500		close rem,0
   222	001150'	254000	001125'	02600		jrst opnrm1		;now get it in update mode
   223
   224	001151'	201040	000050	02710	getrem:	movei	t1,^d40		;init retry count
   225	001152'	202040	001213'	02720		movem	t1,gettry#
   226	001153'	076100	001171'	02800		lookup rem,remnam
   227	001154'	263740	000000	02900		 popj p,
   228	001155'	077100	001171'	03000		enter rem,remnam
   229	001156'	254000	001164'	03100		jrst getrm1
   230	001157'	200040	001176'	03200		move t1,remnam+5
   231	001160'	271040	000177	03300		addi t1,177
   232	001161'	242040	777771	03400		lsh t1,-7
   233	001162'	202040	001215'	03500		movem t1,remsiz#
   234	001163'	254000	000000*	03600		jrst cpopj1		;all set up
   235
   236	001164'	375000	001213'	03620	getrm1:	sosge	gettry
   237	001165'	254000	001210'	03630		jrst	noupdr
   238	001166'	201040	000012	03640		movei	t1,^d10
   239	001167'	047040	000031	03650		sleep	t1,
   240	001170'	254000	001151'	03660		jrst	getrem
   241
   242	001171'	000000	000005	03800	remnam:	5
   243	001172'	000000	000000	03900		0
   244	001173'	624555	515644	04000		sixbit /remind/
   245	001174'	446441	000000	04100		sixbit /dta/
   246	001175'	000000	000000	04200		0
   247	001176'	000000	000000	04300		0
   248
   249	001177'	201500	000002	04500	setrem:	movei blk,rem
rio - io routines for remind and sec	MACRO 12.5-46.0 21:52  2-MAR-81 PAGE 4-2
RIO.MAC	12-APR-78 19:38	

   250	001200'	260740	000010'	04600		pushj p,newfil
   251	001201'	201500	000001	04700		movei blk,1
   252	001202'	260740	001067'	04800		pushj p,rdbuf
   253	001203'	205040	400000	04900		movsi t1,400000
   254	001204'	436053	000000	05000		iorm t1,bufblk(buf)	;lock down block 1
   255	001205'	263740	000000	05100		popj p,
rio - io routines for remind and sec	MACRO 12.5-46.0 21:52  2-MAR-81 PAGE 5
RIO.MAC	12-APR-78 19:38	

   256				00100	nodsk:	outstr [asciz /
   257	001206'	051140	001236'	00200	can not initialize dsk/]
   258	001207'	047000	000012	00300		exit
   259
   260				00500	noupdr:	outstr [asciz /
   261	001210'	051140	001243'	00600	can not update reminder file/]
   262	001211'	047000	000012	00700		exit
   263
   264
   265				01000		end
   266
NO ERRORS DETECTED
PROGRAM BREAK IS 001252
3K CORE USED
rio - io routines for remind and sec	MACRO 12.5-46.0 21:52  2-MAR-81 PAGE 6
RIO.MAC	12-APR-78 19:38		SYMBOL TABLE

BLK		000012		OPNREM		001117'	INT	
BLKCLR		000003'		OPNRM1		001125'		
BUF		000013		OUTSTR	051140	000000		
BUFBLK		000000	SIN	OUTWD		000024'		
BUFDTA		000004	SIN	P		000017		
BUFINI		000000'	INT	P2		000016		
BUFIOW		000002	SPD	PDLSZ		000040	SPD	
BUFLNK		000001	SPD	PDLSZ2		000020	SPD	
BUFNUM		000004	SPD	RDBUF		001067'	INT	
BUFR0		000025'		REM		000002	SPD	
BUFR1		000231'		REMNAM		001171'		
BUFR2		000435'		REMSIZ		001215'	INT	
BUFR3		000641'		RSTERR		100000	SPD	
BUFR4		000025'	SPD	SETPRI		040000	SPD	
C		000014		SETREM		001177'		
CIRC		000400	SPD	SLEEP	047000	000031		
CODE		000006		STPSCN		020000	SPD	
CPOPJ1		001163'	EXT	T1		000001		
CRTREM		001132'		T2		000002		
CS		000015		T3		000003		
DATSIZ		000156	SPD	T4		000004		
DCNT		000010		T5		000005		
DIPRS		400000	SPD	TTY		000001	SPD	
DPTR		000011		USIWD		000022'		
DSPIND		200000	SPD	USOWD		000021'		
EXIT	047000	000012		WRTBUF		001075'	INT	
FBEF		000100	SPD	ZRBUF		001105'	INT	
FEXCPT		000010	SPD	ZZ		000004	SPD	
FILNUM		001212'		
FL		000000		
FNDBF1		001046'		
FNDBF2		001055'		
FNDBUF		001045'		
FNEED1		000004	SPD	
FRDATE		000040	SPD	
FREF		000020	SPD	
FREF2		000200	SPD	
GETREM		001151'	INT	
GETRM1		001164'		
GETTRY		001213'		
GOTBUF		001064'		
IDF		000001	SPD	
ILLWRT		001103'		
INIREM		001134'		
INWD		000023'		
ITEM		000007		
MAL		000003	SPD	
MALHSH		000177	SPD	
NEWFIL		000010'		
NODSK		001206'	INT	
NOUPDR		001210'	INT	
NUMF		000002	SPD	

rio - io routines for remind and sec	MACRO 12.5-46.0 21:52  2-MAR-81
RIO.MAC	12-APR-78 19:38		Symbol cross reference

BLK	    13#	    93	    96	    97	    98	    99	   100	   103	   104	   150	   171	   189	   201	   210
	   219	   249	   251
BLKCLR	    87#	    90
BUF	    12#	   105	   106	   148	   149	   152	   153	   156	   158	   159	   165	   171	   189	   190
	   191	   192	   193	   213	   215	   217	   254
BUFBLK	    73	    79#	    87	   149	   156	   171	   189	   254
BUFDTA	    73	    82#	   190	   191	   192	   193	   213	   215	   217
BUFINI	    73	    84#	    95
BUFIOW	    81#	   105	   106
BUFLNK	    80#	    88	   152	   158	   165
BUFNUM	    78#	   120	   147
BUFR0	    85	   123#	   147
BUFR1	   124	   129#
BUFR2	   130	   135#
BUFR3	   136	   141#
BUFR4	   142	   147#
C	    11#
CIRC	    29#
CODE	    17#
CPOPJ1	    72%	   234
CRTREM	   204	   208#
CS	    10#
DATSIZ	    49#
DCNT	    15#
DIPRS	    37#
DPTR	    14#
DSPIND	    38#
FBEF	    27#
FEXCPT	    24#
FILNUM	    84#	    84	    93	    96
FL	     1#
FNDBF1	   149#	   154
FNDBF2	   156#	   160
FNDBUF	   148#	   169	   176	   187
FNEED1	    23#
FRDATE	    26#
FREF	    25#
FREF2	    28#
GETREM	    74	   203	   224#	   240
GETRM1	   229	   236#
GETTRY	   225#	   225	   236
GOTBUF	   157	   165#
IDF	    21#
ILLWRT	   178	   183#
INIREM	   206	   210#
INWD	    99	   105#	   173
ITEM	    16#
MAL	    33#
MALHSH	    47#
NEWFIL	    93#	   202	   250
NODSK	    74	   200	   256#
NOUPDR	    74	   209	   237	   260#
NUMF	    22#
rio - io routines for remind and sec	MACRO 12.5-46.0 21:52  2-MAR-81
RIO.MAC	12-APR-78 19:38		Symbol cross reference

NXTBUF	    86#	    86	    89	   148	   153	   159	   166
OPNREM	    73	   197#
OPNRM1	   203#	   222
OUTWD	   100	   106#	   180	   195
P	     8#	    91	    94	    95	   101	   151	   155	   165	   166	   167	   169	   170	   174	   176
	   181	   187	   196	   202	   203	   211	   218	   220	   227	   250	   252	   255
P2	     9#
PDLSZ	    43#
PDLSZ2	    44#
RDBUF	    73	   169#	   252
REM	    32#	   197	   201	   208	   221	   226	   228	   249
REMNAM	   208	   226	   228	   230	   242#
REMSIZ	    74	   233#	   233
RSTERR	    39#
SETPRI	    40#
SETREM	   207	   249#
STPSCN	    41#
T1	     2#	    85	    86	    87	    88	    89	   149	   150	   190	   191	   193	   205	   212	   213
	   214	   215	   216	   217	   224	   225	   230	   231	   232	   233	   238	   239	   253	   254
T2	     3#
T3	     4#
T4	     5#
T5	     6#
TTY	    31#
USIWD	    98	   104#	   172
USOWD	    97	   103#	   179	   194
WRTBUF	    73	   176#	   218
ZRBUF	    73	   187#	   211	   220
ZZ	   119#	   122	   127	   127#	   128	   133	   133#	   134	   139	   139#	   140	   145	   145#
rio - io routines for remind and sec	MACRO 12.5-46.0 21:52  2-MAR-81
RIO.MAC	12-APR-78 19:38		Macro/Opdef cross reference

BUFER	   111#	   122	   128	   134	   140
CAT	   109#	   124	   130	   136	   142	   147
EXIT	   163	   185	   258	   262
OUTSTR	   161	   183	   256	   260
SLEEP	   239
TABLE	    60#
WRD	    53#RMAL - SET UP MAIL STUFF FOR REMIND	MACRO 12.5-46.0 21:52  2-MAR-81 PAGE 1
RPARAM.MAC	12-APR-78 19:35	

     1			000000	00100	FL=0
     2			000001	00200	T1=1
     3			000002	00300	T2=2
     4			000003	00400	T3=3
     5			000004	00500	T4=4
     6			000005	00600	t5=5
     7
     8			000017	00800	P=17
     9			000016	00900	P2=16
    10			000015	01000	CS=15		;CHARACTER FLAGS
    11			000014	01100	C=14		;CHARACTER
    12			000013	01200	BUF=13
    13			000012	01300	BLK=12
    14			000011	01400	DPTR=11		;POINTER TO DATE STRING
    15			000010	01500	DCNT=10		;NUMBER OF CHRS LEFT TO PUT IN DATE STRING
    16			000007	01600	ITEM=7	;BACK FROM THE SCANNER
    17			000006	01700	CODE=6		;ALSO BACK FROM THE SCANER
    18
    19				01900	;FLAGS IN F (RH)
    20
    21			000001	02100	IDF==1		;IDENT SEEN BY SCANNER
    22			000002	02200	NUMF==2		;NUMBER SEEN BY SCANNER
    23			000004	02300	FNEED1==4	;FLAG FOR DATES, A DATE NEEDED
    24			000010	02400	FEXCPT==10	;FLAG FOR DATES, IN EXCEPT
    25			000020	02500	FREF==20	;FLAG FOR DATES, READ A REFERENCE (ETC.) DATE
    26			000040	02600	FRDATE==40	;FLAG FOR DATES, REAL DATE (USED BY REF)
    27			000100	02700	FBEF==100	;IN A BEFORE OR AFTER STREAM
    28			000200	02800	FREF2==200	;FLAG FOR BETWEEN ( IS PERMITTED ELSE LIKE FREF
    29			000400	02900	circ==400	;flag for circuit built (alarm)
    30
    31			000001	03100	TTY==1
    32			000002	03200	REM==2
    33			000003	03300	MAL==3		;MAILBOX
    34
    35				03500	;FLAGS IN LH OF COMMAND TABLE
    36
    37			400000	03700	DIPRS==400000	;DISPATCH ADDRESS PRESENT
    38			200000	03800	DSPIND==200000		;DISPATCH INCREMENT PRESENT
    39			100000	03900	RSTERR==100000		;RESET ERROR TABLE
    40			040000	04000	SETPRI==040000		;"PRIMARY" COMMAND
    41			020000	04100	STPSCN==020000		;DISPATCH NOW, END OF COMMAND
    42
    43			000040	04300	PDLSZ==40
    44			000020	04400	PDLSZ2==20
    45
    46
    47			000177	04700	MALHSH==177	;HASH FOR LOOKING AT MAILBOX
    48
    49			000156	04900	DATSIZ==^D110	;SIZE OF DATE STORAGE (MAX)
RMAL - SET UP MAIL STUFF FOR REMIND	MACRO 12.5-46.0 21:52  2-MAR-81 PAGE 2
RPARAM.MAC	12-APR-78 19:35	

    50				00100	;DEFINITION OF MACRO TO GENERATE THE FIRST 3 WORDS OF SIXBIT
    51
    52				00300		DEFINE WRD(A,B)
    53				00400	<ZZ==0
    54				00500	ZZ1==0
    55				00600		IRPC A,<ZZ=ZZ+1
    56				00700	IFG ZZ-B,<IFLE ZZ-B-6,<ZZ1==ZZ1_6+''A''>>>
    57				00800	IFL ZZ-B-6,<ZZ1==ZZ1_<<B+6-ZZ>*6>>
    58				00900		ZZ1>
    59				01000		DEFINE TABLE (A)
    60				01100	<	DEFINE X(B,C,D,E)
    61				01200	<	WRD (B,0)>
    62				01300		A
    63				01400		DEFINE X(B,C,D,E)
    64				01500	<	WRD (B,6)>
    65				01600		A
    66				01700		DEFINE X(B,C,D,E)
    67				01800	<	WRD (B,^D12)>
    68				01900		A>
RMAL - SET UP MAIL STUFF FOR REMIND	MACRO 12.5-46.0 21:52  2-MAR-81 PAGE 1
RMAL.MAC	12-APR-78 19:39	

    69				00100	TITLE RMAL - SET UP MAIL STUFF FOR REMIND
    70
    71
    72				00300	INTERNAL PRMAIL,CHGMAL,LSTMAL,INSMAL,DELMAL
    73
    74				00500	;IN RMAIN
    75				00600	EXTERNAL CMD
    76				00700	;IN RCMAL
    77				00800	EXTERNAL CPRML
    78				00900	;IN RIO
    79				01000	EXTERNAL RDBUF,BUFDTA,WRTBUF,BUFBLK
    80				01100	;IN RRMD
    81				01200	EXTERNAL RDNAM,NAMBUF,SPCBLK,REMGET
    82				01300	;IN RCOM
    83				01400	EXTERNAL CPOPJ1
RMAL - SET UP MAIL STUFF FOR REMIND	MACRO 12.5-46.0 21:52  2-MAR-81 PAGE 2
RMAL.MAC	12-APR-78 19:39	

    84	000000'	051140	000201'	00010	INSMAL:	OUTSTR [ASCIZ /User: /]
    85	000001'	066040	000000	00020		INPUT TTY,0
    86	000002'	201040	000014	00030		MOVEI T1,^D12
    87	000003'	260740	000000*	00040		PUSHJ P,RDNAM
    88	000004'	260740	000063'	00050		PUSHJ P,SRMAL
    89	000005'	334000	000000	00060		 SKIPA		;NOT FOUND
    90	000006'	254000	000026'	00070		JRST MALAIN	;ALREDY THERE
    91
    92	000007'	336500	000000*	00090	MALINS:	SKIPN BLK,SPCBLK	;IS THERE ON RECORDED BY SRMAL
    93	000010'	254000	000032'	00100		JRST NEWMBK		;NO, NEED A NEW ONE
    94	000011'	260740	000000*	00110		PUSHJ P,RDBUF		;YES, GET IT
    95	000012'	201053	000001*	00120		MOVEI T1,BUFDTA+1(BUF)
    96	000013'	336001	000000	00130	MALIN1:	SKIPN (T1)		;THERE IS AN OPEN SLOT. FIND IT
    97	000014'	254000	000017'	00140		JRST MALSLT
    98	000015'	271040	000003	00150		ADDI T1,3
    99	000016'	254000	000013'	00160		JRST MALIN1
   100
   101	000017'	505040	000000*	00180	MALSLT:	HRLI T1,NAMBUF
   102	000020'	200100	000001	00190		MOVE T2,T1
   103	000021'	251042	000002	00200		BLT T1,2(T2)
   104	000022'	260740	000000*	00210		PUSHJ P,WRTBUF
   105	000023'	254000	000000*	00220		JRST CMD
   106
   107	000024'	262740	000001	00240	MALAI1:	POP P,T1
   108	000025'	262740	000001	00250		POP P,T1
   109				00260	MALAIN:	OUTSTR [ASCIZ /
   110	000026'	051140	000203'	00270	Name already in list./]
   111	000027'	254000	000023*	00280		JRST CMD
   112
   113				00300	NOTMAL:	OUTSTR [ASCIZ /
   114	000030'	051140	000210'	00310	Name not found in list./]
   115	000031'	254000	000027*	00320		JRST CMD
RMAL - SET UP MAIL STUFF FOR REMIND	MACRO 12.5-46.0 21:52  2-MAR-81 PAGE 3
RMAL.MAC	12-APR-78 19:39	

   116	000032'	260740	000000*	00010	NEWMBK:	PUSHJ P,REMGET	;GET A FREE BLOCK
   117	000033'	260740	000011*	00020		PUSHJ P,RDBUF	;MAKE SURE ITS IN CORE
   118	000034'	261753	000000*	00030		PUSH P,BUFBLK(BUF)	;LOCK IT IN
   119	000035'	205040	400000	00040		MOVSI T1,400000
   120	000036'	436053	000034*	00050		IORM T1,BUFBLK(BUF)
   121	000037'	261740	000012	00060		PUSH P,BLK
   122	000040'	201500	000001	00070		MOVEI BLK,1
   123	000041'	260740	000033*	00080		PUSHJ P,RDBUF
   124	000042'	200513	000177*	00090		MOVE BLK,BUFDTA+177(BUF)	;GET THE LINK TO MAIL BLOCKS
   125	000043'	250517	000000	00100		EXCH BLK,(P)	;SAVE IT AND GET BACK FREE
   126	000044'	260740	000041*	00110		PUSHJ P,RDBUF
   127	000045'	262753	000000*	00120		POP P,BUFDTA(BUF)	;LINK UP
   128	000046'	201053	000001*	00130		MOVEI T1,BUFDTA+1(BUF)
   129	000047'	505040	000017*	00140		HRLI T1,NAMBUF
   130	000050'	251053	000003*	00150		BLT T1,BUFDTA+3(BUF)
   131	000051'	260740	000022*	00160		PUSHJ P,WRTBUF	;WRITE OUT THE NEW BLOCK
   132	000052'	261740	000012	00170		PUSH P,BLK	;SAVE BLOCK AGAIN
   133	000053'	201500	000001	00180		MOVEI BLK,1
   134	000054'	260740	000044*	00190		PUSHJ P,RDBUF
   135	000055'	262753	000177*	00200		POP P,BUFDTA+177(BUF)
   136	000056'	260740	000051*	00210		PUSHJ P,WRTBUF	;NOW LINKED IN
   137	000057'	200513	000177*	00220		MOVE BLK,BUFDTA+177(BUF)	;BLOCK OF LOCKED BUFFER
   138	000060'	260740	000054*	00230		PUSHJ P,RDBUF	;POINT TO LOCKED BUFFER
   139	000061'	262753	000036*	00240		POP P,BUFBLK(BUF)	;UNLOCK IT
   140	000062'	254000	000031*	00250		JRST CMD
   141
   142	000063'	201500	000001	00270	SRMAL:	MOVEI BLK,1
   143	000064'	402000	000007*	00280		SETZM SPCBLK
   144	000065'	260740	000060*	00290		PUSHJ P,RDBUF
   145	000066'	336513	000177*	00300		SKIPN BLK,BUFDTA+177(BUF)
   146	000067'	263740	000000	00310		POPJ P,		;NO MAIL BLOCKS AT ALL
   147	000070'	260740	000065*	00320	SRMAL3:	PUSHJ P,RDBUF
   148	000071'	201053	000001*	00330		MOVEI T1,BUFDTA+1(BUF)
   149	000072'	505040	777726	00340		HRLI T1,-^D42	;NUMBER OF SLOTS
   150	000073'	336101	000000	00350	SRMAL2:	SKIPN T2,(T1)
   151	000074'	254000	000110'	00360		JRST MALSPC	;A ZERO SLOT. RECORD FACT
   152	000075'	312100	000047*	00370		CAME T2,NAMBUF
   153	000076'	254000	000105'	00380		JRST SRMAL1	;NOT A MATCH
   154	000077'	200101	000001	00390		MOVE T2,1(T1)
   155	000100'	312100	000001*	00400		CAME T2,NAMBUF+1
   156	000101'	254000	000105'	00410		JRST SRMAL1
   157	000102'	200101	000002	00420		MOVE T2,2(T1)
   158	000103'	316100	000002*	00430		CAMN T2,NAMBUF+2
   159	000104'	254000	000000*	00440		JRST CPOPJ1	;A MATCH
   160	000105'	271040	000002	00450	SRMAL1:	ADDI T1,2
   161	000106'	253040	000073'	00460		AOBJN T1,SRMAL2
   162	000107'	334000	000000	00470		SKIPA		;CHECK ALL BLOCKS, NO SPACE
   163	000110'	202500	000064*	00480	MALSPC:	MOVEM BLK,SPCBLK
   164	000111'	332513	000045*	00490		SKIPE BLK,BUFDTA(BUF)
   165	000112'	254000	000070'	00500		JRST SRMAL3
   166	000113'	263740	000000	00510		POPJ P,		;NO MATCH
RMAL - SET UP MAIL STUFF FOR REMIND	MACRO 12.5-46.0 21:52  2-MAR-81 PAGE 4
RMAL.MAC	12-APR-78 19:39	

   167	000114'	201500	000001	00010	LSTMAL:	MOVEI BLK,1
   168	000115'	260740	000070*	00020		PUSHJ P,RDBUF
   169	000116'	336513	000177*	00030		SKIPN BLK,BUFDTA+177(BUF)
   170	000117'	254000	000062*	00040		JRST CMD
   171	000120'	260740	000115*	00050	LSTML3:	PUSHJ P,RDBUF
   172	000121'	201053	000001*	00060		MOVEI T1,BUFDTA+1(BUF)
   173	000122'	505040	777726	00070		HRLI T1,-^D42
   174	000123'	336001	000000	00080	LSTML2:	SKIPN (T1)
   175	000124'	254000	000131'	00090		JRST LSTML1	;EMPTY SLOT AND END OF BLOCK
   176	000125'	051141	000000	00100		OUTSTR (T1)
   177				00110		OUTSTR [ASCIZ /
   178	000126'	051140	000216'	00120	/]
   179	000127'	271040	000002	00130		ADDI T1,2
   180	000130'	253040	000123'	00140		AOBJN T1,LSTML2
   181	000131'	332513	000111*	00150	LSTML1:	SKIPE BLK,BUFDTA(BUF)
   182	000132'	254000	000120'	00160		JRST LSTML3
   183	000133'	254000	000117*	00170		JRST CMD
   184
   185	000134'	051140	000201'	00190	DELMAL:	OUTSTR [ASCIZ /User: /]
   186	000135'	066040	000000	00200		INPUT TTY,0
   187	000136'	201040	000014	00210		MOVEI T1,^D12
   188	000137'	260740	000003*	00220		PUSHJ P,RDNAM
   189	000140'	260740	000063'	00230		PUSHJ P,SRMAL
   190	000141'	254000	000030'	00240		 JRST NOTMAL
   191	000142'	505041	000003	00250		HRLI T1,3(T1)
   192	000143'	251053	000173*	00260		BLT T1,BUFDTA+173(BUF)
   193	000144'	402013	000174*	00270		SETZM BUFDTA+174(BUF)
   194	000145'	402013	000175*	00280		SETZM BUFDTA+175(BUF)
   195	000146'	402013	000176*	00290		SETZM BUFDTA+176(BUF)
   196	000147'	260740	000056*	00300		PUSHJ P,WRTBUF
   197	000150'	254000	000133*	00310		JRST CMD
RMAL - SET UP MAIL STUFF FOR REMIND	MACRO 12.5-46.0 21:52  2-MAR-81 PAGE 5
RMAL.MAC	12-APR-78 19:39	

   198	000151'	051140	000201'	00010	CHGMAL:	OUTSTR [ASCIZ /User: /]
   199	000152'	066040	000000	00020		INPUT TTY,0
   200	000153'	201040	000014	00030		MOVEI T1,^D12
   201	000154'	260740	000137*	00040		PUSHJ P,RDNAM
   202	000155'	260740	000063'	00050		PUSHJ P,SRMAL
   203	000156'	254000	000030'	00060		 JRST NOTMAL
   204	000157'	261740	000001	00070		PUSH P,T1
   205	000160'	261740	000012	00080		PUSH P,BLK	;INFORMATION ABOUT WHERE STORED
   206	000161'	051140	000217'	00090		OUTSTR [ASCIZ /New name: /]
   207	000162'	201040	000014	00100		MOVEI T1,^D12
   208	000163'	260740	000154*	00110		PUSHJ P,RDNAM
   209	000164'	260740	000063'	00120		PUSHJ P,SRMAL
   210	000165'	334000	000000	00130		 SKIPA
   211	000166'	254000	000024'	00140		JRST MALAI1	;CHANGING TO ONE WHICH EXISTS
   212	000167'	262740	000012	00150		POP P,BLK
   213	000170'	260740	000120*	00160		PUSHJ P,RDBUF
   214	000171'	262740	000001	00170		POP P,T1
   215	000172'	505040	000075*	00180		HRLI T1,NAMBUF
   216	000173'	200100	000001	00190		MOVE T2,T1
   217	000174'	251042	000002	00200		BLT T1,2(T2)	;PUT IN NEW NAME
   218	000175'	260740	000147*	00210		PUSHJ P,WRTBUF
   219	000176'	254000	000150*	00220		JRST CMD
   220
   221	000177'	260740	000000*	00240	PRMAIL:	PUSHJ P,CPRML
   222	000200'	254000	000176*	00250		JRST CMD
   223
   224				00270		END
   225
NO ERRORS DETECTED
PROGRAM BREAK IS 000222
3K CORE USED
RMAL - SET UP MAIL STUFF FOR REMIND	MACRO 12.5-46.0 21:52  2-MAR-81 PAGE 6
RMAL.MAC	12-APR-78 19:39		SYMBOL TABLE

BLK		000012		REMGET		000032'	EXT	
BUF		000013		RSTERR		100000	SPD	
BUFBLK		000061'	EXT	SETPRI		040000	SPD	
BUFDTA		000131'	EXT	SPCBLK		000110'	EXT	
C		000014		SRMAL		000063'		
CHGMAL		000151'	INT	SRMAL1		000105'		
CIRC		000400	SPD	SRMAL2		000073'		
CMD		000200'	EXT	SRMAL3		000070'		
CODE		000006		STPSCN		020000	SPD	
CPOPJ1		000104'	EXT	T1		000001		
CPRML		000177'	EXT	T2		000002		
CS		000015		T3		000003		
DATSIZ		000156	SPD	T4		000004		
DCNT		000010		T5		000005		
DELMAL		000134'	INT	TTY		000001	SPD	
DIPRS		400000	SPD	WRTBUF		000175'	EXT	
DPTR		000011		
DSPIND		200000	SPD	
FBEF		000100	SPD	
FEXCPT		000010	SPD	
FL		000000		
FNEED1		000004	SPD	
FRDATE		000040	SPD	
FREF		000020	SPD	
FREF2		000200	SPD	
IDF		000001	SPD	
INSMAL		000000'	INT	
ITEM		000007		
LSTMAL		000114'	INT	
LSTML1		000131'		
LSTML2		000123'		
LSTML3		000120'		
MAL		000003	SPD	
MALAI1		000024'		
MALAIN		000026'		
MALHSH		000177	SPD	
MALIN1		000013'		
MALINS		000007'		
MALSLT		000017'		
MALSPC		000110'		
NAMBUF		000172'	EXT	
NEWMBK		000032'		
NOTMAL		000030'		
NUMF		000002	SPD	
OUTSTR	051140	000000		
P		000017		
P2		000016		
PDLSZ		000040	SPD	
PDLSZ2		000020	SPD	
PRMAIL		000177'	INT	
RDBUF		000170'	EXT	
RDNAM		000163'	EXT	

RMAL - SET UP MAIL STUFF FOR REMIND	MACRO 12.5-46.0 21:52  2-MAR-81
RMAL.MAC	12-APR-78 19:39		Symbol cross reference

BLK	    13#	    92	   121	   122	   124	   125	   132	   133	   137	   142	   145	   163	   164	   167
	   169	   181	   205	   212
BUF	    12#	    95	   118	   120	   124	   127	   128	   130	   135	   137	   139	   145	   148	   164
	   169	   172	   181	   192	   193	   194	   195
BUFBLK	    79%	   118	   120	   139
BUFDTA	    79%	    95	   124	   127	   128	   130	   135	   137	   145	   148	   164	   169	   172	   181
	   192	   193	   194	   195
C	    11#
CHGMAL	    72	   198#
CIRC	    29#
CMD	    75%	   105	   111	   115	   140	   170	   183	   197	   219	   222
CODE	    17#
CPOPJ1	    83%	   159
CPRML	    77%	   221
CS	    10#
DATSIZ	    49#
DCNT	    15#
DELMAL	    72	   185#
DIPRS	    37#
DPTR	    14#
DSPIND	    38#
FBEF	    27#
FEXCPT	    24#
FL	     1#
FNEED1	    23#
FRDATE	    26#
FREF	    25#
FREF2	    28#
IDF	    21#
INSMAL	    72	    84#
ITEM	    16#
LSTMAL	    72	   167#
LSTML1	   175	   181#
LSTML2	   174#	   180
LSTML3	   171#	   182
MAL	    33#
MALAI1	   107#	   211
MALAIN	    90	   109#
MALHSH	    47#
MALIN1	    96#	    99
MALINS	    92#
MALSLT	    97	   101#
MALSPC	   151	   163#
NAMBUF	    81%	   101	   129	   152	   155	   158	   215
NEWMBK	    93	   116#
NOTMAL	   113#	   190	   203
NUMF	    22#
P	     8#	    87	    88	    94	   104	   107	   108	   116	   117	   118	   121	   123	   125	   126
	   127	   131	   132	   134	   135	   136	   138	   139	   144	   146	   147	   166	   168	   171
	   188	   189	   196	   201	   202	   204	   205	   208	   209	   212	   213	   214	   218	   221
P2	     9#
PDLSZ	    43#
PDLSZ2	    44#
RMAL - SET UP MAIL STUFF FOR REMIND	MACRO 12.5-46.0 21:52  2-MAR-81
RMAL.MAC	12-APR-78 19:39		Symbol cross reference

PRMAIL	    72	   221#
RDBUF	    79%	    94	   117	   123	   126	   134	   138	   144	   147	   168	   171	   213
RDNAM	    81%	    87	   188	   201	   208
REM	    32#
REMGET	    81%	   116
RSTERR	    39#
SETPRI	    40#
SPCBLK	    81%	    92	   143	   163
SRMAL	    88	   142#	   189	   202	   209
SRMAL1	   153	   156	   160#
SRMAL2	   150#	   161
SRMAL3	   147#	   165
STPSCN	    41#
T1	     2#	    86	    95	    96	    98	   101	   102	   103	   107	   108	   119	   120	   128	   129
	   130	   148	   149	   150	   154	   157	   160	   161	   172	   173	   174	   176	   179	   180
	   187	   191	   192	   200	   204	   207	   214	   215	   216	   217
T2	     3#	   102	   103	   150	   152	   154	   155	   157	   158	   216	   217
T3	     4#
T4	     5#
T5	     6#
TTY	    31#	    85	   186	   199
WRTBUF	    79%	   104	   131	   136	   196	   218
RMAL - SET UP MAIL STUFF FOR REMIND	MACRO 12.5-46.0 21:52  2-MAR-81
RMAL.MAC	12-APR-78 19:39		Macro/Opdef cross reference

OUTSTR	    84	   109	   113	   176	   177	   185	   198	   206
TABLE	    60#
WRD	    53#   RCMAL - COMMON MAIL ROUTINES FOR REMIND AND SEC	MACRO 12.5-46.0 21:52  2-MAR-81 PAGE 1
RPARAM.MAC	12-APR-78 19:35	

     1			000000	00100	FL=0
     2			000001	00200	T1=1
     3			000002	00300	T2=2
     4			000003	00400	T3=3
     5			000004	00500	T4=4
     6			000005	00600	t5=5
     7
     8			000017	00800	P=17
     9			000016	00900	P2=16
    10			000015	01000	CS=15		;CHARACTER FLAGS
    11			000014	01100	C=14		;CHARACTER
    12			000013	01200	BUF=13
    13			000012	01300	BLK=12
    14			000011	01400	DPTR=11		;POINTER TO DATE STRING
    15			000010	01500	DCNT=10		;NUMBER OF CHRS LEFT TO PUT IN DATE STRING
    16			000007	01600	ITEM=7	;BACK FROM THE SCANNER
    17			000006	01700	CODE=6		;ALSO BACK FROM THE SCANER
    18
    19				01900	;FLAGS IN F (RH)
    20
    21			000001	02100	IDF==1		;IDENT SEEN BY SCANNER
    22			000002	02200	NUMF==2		;NUMBER SEEN BY SCANNER
    23			000004	02300	FNEED1==4	;FLAG FOR DATES, A DATE NEEDED
    24			000010	02400	FEXCPT==10	;FLAG FOR DATES, IN EXCEPT
    25			000020	02500	FREF==20	;FLAG FOR DATES, READ A REFERENCE (ETC.) DATE
    26			000040	02600	FRDATE==40	;FLAG FOR DATES, REAL DATE (USED BY REF)
    27			000100	02700	FBEF==100	;IN A BEFORE OR AFTER STREAM
    28			000200	02800	FREF2==200	;FLAG FOR BETWEEN ( IS PERMITTED ELSE LIKE FREF
    29			000400	02900	circ==400	;flag for circuit built (alarm)
    30
    31			000001	03100	TTY==1
    32			000002	03200	REM==2
    33			000003	03300	MAL==3		;MAILBOX
    34
    35				03500	;FLAGS IN LH OF COMMAND TABLE
    36
    37			400000	03700	DIPRS==400000	;DISPATCH ADDRESS PRESENT
    38			200000	03800	DSPIND==200000		;DISPATCH INCREMENT PRESENT
    39			100000	03900	RSTERR==100000		;RESET ERROR TABLE
    40			040000	04000	SETPRI==040000		;"PRIMARY" COMMAND
    41			020000	04100	STPSCN==020000		;DISPATCH NOW, END OF COMMAND
    42
    43			000040	04300	PDLSZ==40
    44			000020	04400	PDLSZ2==20
    45
    46
    47			000177	04700	MALHSH==177	;HASH FOR LOOKING AT MAILBOX
    48
    49			000156	04900	DATSIZ==^D110	;SIZE OF DATE STORAGE (MAX)
RCMAL - COMMON MAIL ROUTINES FOR REMIND AND SEC	MACRO 12.5-46.0 21:52  2-MAR-81 PAGE 2
RPARAM.MAC	12-APR-78 19:35	

    50				00100	;DEFINITION OF MACRO TO GENERATE THE FIRST 3 WORDS OF SIXBIT
    51
    52				00300		DEFINE WRD(A,B)
    53				00400	<ZZ==0
    54				00500	ZZ1==0
    55				00600		IRPC A,<ZZ=ZZ+1
    56				00700	IFG ZZ-B,<IFLE ZZ-B-6,<ZZ1==ZZ1_6+''A''>>>
    57				00800	IFL ZZ-B-6,<ZZ1==ZZ1_<<B+6-ZZ>*6>>
    58				00900		ZZ1>
    59				01000		DEFINE TABLE (A)
    60				01100	<	DEFINE X(B,C,D,E)
    61				01200	<	WRD (B,0)>
    62				01300		A
    63				01400		DEFINE X(B,C,D,E)
    64				01500	<	WRD (B,6)>
    65				01600		A
    66				01700		DEFINE X(B,C,D,E)
    67				01800	<	WRD (B,^D12)>
    68				01900		A>
RCMAL - COMMON MAIL ROUTINES FOR REMIND AND SEC	MACRO 12.5-46.0 21:52  2-MAR-81 PAGE 1
RCMAL.MAC	12-APR-78 19:40	

    69				00100	TITLE RCMAL - COMMON MAIL ROUTINES FOR REMIND AND SEC
    70
    71
    72				00300	INTERNAL CPRML
    73
    74				00500	;IN RIO
    75				00600	EXTERNAL NODSK,RDBUF,BUFDTA
RCMAL - COMMON MAIL ROUTINES FOR REMIND AND SEC	MACRO 12.5-46.0 21:52  2-MAR-81 PAGE 2
RCMAL.MAC	12-APR-78 19:40	

    76				00010	ARRAY USER[2],MALBUF[200]
    77
    78	000000'	777600	000076'	00030	MALCOM:	IOWD 200,MALBUF
    79	000001'	000000	000000	00040		0
    80
    81	000002'	000000	000003	00060	MALNAM:	3
    82	000003'	000000	000000	00070		0
    83	000004'	705742	544155	00080		SIXBIT /XOBLAM/	;NAME OF MAILBOX
    84	000005'	000000	000000	00090		0
    85
    86	000006'	041140	000016	00110	CPRML:	INIT MAL,16
    87	000007'	637163	000000	00120		SIXBIT /SYS/
    88	000010'	000000	000000	00130		0
    89	000011'	254000	000000*	00140		JRST NODSK
    90	000012'	076140	000002'	00150		LOOKUP MAL,MALNAM
    91	000013'	254000	000074'	00160		 JRST NOMBX
    92	000014'	201500	000001	00170		MOVEI BLK,1
    93	000015'	260740	000000*	00180		PUSHJ P,RDBUF
    94	000016'	336513	000177*	00190		SKIPN BLK,BUFDTA+177(BUF)
    95	000017'	254000	000075'	00200		JRST ENDMAL	;ALL FINISHED
    96	000020'	260740	000015*	00210	PRMAL3:	PUSHJ P,RDBUF
    97	000021'	201053	000001*	00220		MOVEI T1,BUFDTA+1(BUF)
    98	000022'	505040	777726	00230		HRLI T1,-^D42
    99	000023'	336001	000000	00240	PRMAL2:	SKIPN (T1)
   100	000024'	254000	000065'	00250		JRST PRMAL1	;FINISHED THIS BLOCK
   101	000025'	200100	000001	00260		MOVE T2,T1	;MAKE A BYTE POINTER TO IT
   102	000026'	505100	440700	00270		HRLI T2,(POINT 7,0)
   103	000027'	402000	000277'	00280		SETZM USER
   104	000030'	402000	000300'	00290		SETZM USER+1
   105	000031'	200140	000301'	00300		MOVE T3,[POINT 6,USER]
   106	000032'	134200	000002	00310	SIXUSR:	ILDB T4,T2	;MUST CONVERT NAME TO SIXBIT
   107	000033'	322200	000041'	00320		JUMPE T4,ENDUSR	;END OF NAME
   108	000034'	275200	000040	00330		SUBI T4,40
   109	000035'	301200	000101	00340		CAIL T4,101
   110	000036'	275200	000040	00350		SUBI T4,40
   111	000037'	136200	000003	00360		IDPB T4,T3
   112	000040'	254000	000032'	00370		JRST SIXUSR
RCMAL - COMMON MAIL ROUTINES FOR REMIND AND SEC	MACRO 12.5-46.0 21:52  2-MAR-81 PAGE 3
RCMAL.MAC	12-APR-78 19:40	

   113	000041'	200100	000277'	00010	ENDUSR:	MOVE T2,USER
   114	000042'	270100	000300'	00020		ADD T2,USER+1
   115	000043'	621100	400000	00030		TLZ T2,400000
   116	000044'	231100	000177	00040		IDIVI T2,MALHSH
   117	000045'	201103	000001	00050		MOVEI T2,1(T3)
   118	000046'	074142	000001	00060	NXMBK:	USETI MAL,1(T2)
   119	000047'	066140	000000'	00070		INPUT MAL,MALCOM	;READ THE MAILBOX
   120	000050'	205140	777740	00080		MOVSI T3,-40	;SLOTS IN THIS BLOCK
   121	000051'	336203	000077'	00090	MLKLP:	SKIPN T4,MALBUF(T3)
   122	000052'	254000	000063'	00100		JRST NOMAL	;END OF BLOCK, USER NOT FOUND
   123	000053'	312200	000277'	00110		CAME T4,USER
   124	000054'	254000	000070'	00120		JRST NOTUSR	;NOT THE ONE WE WANT
   125	000055'	200203	000100'	00130		MOVE T4,MALBUF+1(T3)
   126	000056'	312200	000300'	00140		CAME T4,USER+1
   127	000057'	254000	000070'	00150		JRST NOTUSR
   128	000060'	051140	000302'	00160		OUTSTR [ASCIZ /Mail for /]
   129	000061'	051141	000000	00170		OUTSTR (T1)
   130				00180		OUTSTR [ASCIZ /.
   131	000062'	051140	000304'	00190	/]
   132	000063'	271040	000002	00200	NOMAL:	ADDI T1,2	;GO TO NEXT ENTRY IN MAIL FILE
   133	000064'	253040	000023'	00210		AOBJN T1,PRMAL2
   134	000065'	336513	000000*	00220	PRMAL1:	SKIPN BLK,BUFDTA(BUF)
   135	000066'	254000	000075'	00230		JRST ENDMAL	;NO LINK
   136	000067'	254000	000020'	00240		JRST PRMAL3
   137
   138	000070'	271140	000003	00260	NOTUSR:	ADDI T3,3	;TO NEXT SLOT
   139	000071'	253140	000051'	00270		AOBJN T3,MLKLP
   140	000072'	271100	000001	00280		ADDI T2,1
   141	000073'	254000	000046'	00290		JRST NXMBK	;TO NEXT BLOCK
   142
   143				00310	NOMBX:	OUTSTR [ASCIZ /
   144				00320	Can't access mailbox.
   145	000074'	051140	000305'	00330	/]
   146	000075'	071140	000000	00340	ENDMAL:	RELEASE MAL,0
   147	000076'	263740	000000	00350		POPJ P,
   148
   149				00370		END
   150
NO ERRORS DETECTED
PROGRAM BREAK IS 000313
3K CORE USED
RCMAL - COMMON MAIL ROUTINES FOR REMIND AND SEC	MACRO 12.5-46.0 21:52  2-MAR-81 PAGE 4
RCMAL.MAC	12-APR-78 19:40		SYMBOL TABLE

BLK		000012		T4		000004		
BUF		000013		T5		000005		
BUFDTA		000065'	EXT	TTY		000001	SPD	
C		000014		USER		000277'		
CIRC		000400	SPD	
CODE		000006		
CPRML		000006'	INT	
CS		000015		
DATSIZ		000156	SPD	
DCNT		000010		
DIPRS		400000	SPD	
DPTR		000011		
DSPIND		200000	SPD	
ENDMAL		000075'		
ENDUSR		000041'		
FBEF		000100	SPD	
FEXCPT		000010	SPD	
FL		000000		
FNEED1		000004	SPD	
FRDATE		000040	SPD	
FREF		000020	SPD	
FREF2		000200	SPD	
IDF		000001	SPD	
ITEM		000007		
MAL		000003	SPD	
MALBUF		000077'		
MALCOM		000000'		
MALHSH		000177	SPD	
MALNAM		000002'		
MLKLP		000051'		
NODSK		000011'	EXT	
NOMAL		000063'		
NOMBX		000074'		
NOTUSR		000070'		
NUMF		000002	SPD	
NXMBK		000046'		
OUTSTR	051140	000000		
P		000017		
P2		000016		
PDLSZ		000040	SPD	
PDLSZ2		000020	SPD	
PRMAL1		000065'		
PRMAL2		000023'		
PRMAL3		000020'		
RDBUF		000020'	EXT	
REM		000002	SPD	
RSTERR		100000	SPD	
SETPRI		040000	SPD	
SIXUSR		000032'		
STPSCN		020000	SPD	
T1		000001		
T2		000002		

RCMAL - COMMON MAIL ROUTINES FOR REMIND AND SEC	MACRO 12.5-46.0 21:52  2-MAR-81
RCMAL.MAC	12-APR-78 19:40		Symbol cross reference

BLK	    13#	    92	    94	   134
BUF	    12#	    94	    97	   134
BUFDTA	    75%	    94	    97	   134
C	    11#
CIRC	    29#
CODE	    17#
CPRML	    72	    86#
CS	    10#
DATSIZ	    49#
DCNT	    15#
DIPRS	    37#
DPTR	    14#
DSPIND	    38#
ENDMAL	    95	   135	   146#
ENDUSR	   107	   113#
FBEF	    27#
FEXCPT	    24#
FL	     1#
FNEED1	    23#
FRDATE	    26#
FREF	    25#
FREF2	    28#
IDF	    21#
ITEM	    16#
MAL	    33#	    86	    90	   118	   119	   146
MALBUF	    76#	    78	   121	   125
MALCOM	    78#	   119
MALHSH	    47#	   116
MALNAM	    81#	    90
MLKLP	   121#	   139
NODSK	    75%	    89
NOMAL	   122	   132#
NOMBX	    91	   143#
NOTUSR	   124	   127	   138#
NUMF	    22#
NXMBK	   118#	   141
P	     8#	    93	    96	   147
P2	     9#
PDLSZ	    43#
PDLSZ2	    44#
PRMAL1	   100	   134#
PRMAL2	    99#	   133
PRMAL3	    96#	   136
RDBUF	    75%	    93	    96
REM	    32#
RSTERR	    39#
SETPRI	    40#
SIXUSR	   106#	   112
STPSCN	    41#
T1	     2#	    97	    98	    99	   101	   129	   132	   133
T2	     3#	   101	   102	   106	   113	   114	   115	   116	   117	   118	   140
T3	     4#	   105	   111	   117	   120	   121	   125	   138	   139
T4	     5#	   106	   107	   108	   109	   110	   111	   121	   123	   125	   126
RCMAL - COMMON MAIL ROUTINES FOR REMIND AND SEC	MACRO 12.5-46.0 21:52  2-MAR-81
RCMAL.MAC	12-APR-78 19:40		Symbol cross reference

T5	     6#
TTY	    31#
USER	    76#	   103	   104	   105	   113	   114	   123	   126
RCMAL - COMMON MAIL ROUTINES FOR REMIND AND SEC	MACRO 12.5-46.0 21:52  2-MAR-81
RCMAL.MAC	12-APR-78 19:40		Macro/Opdef cross reference

OUTSTR	   128	   129	   130	   143
TABLE	    60#
WRD	    53#    RDATE - MOST OF THE REMIND DATE CODE	MACRO 12.5-46.0 21:52  2-MAR-81 PAGE 1
RPARAM.MAC	12-APR-78 19:35	

     1			000000	00100	FL=0
     2			000001	00200	T1=1
     3			000002	00300	T2=2
     4			000003	00400	T3=3
     5			000004	00500	T4=4
     6			000005	00600	t5=5
     7
     8			000017	00800	P=17
     9			000016	00900	P2=16
    10			000015	01000	CS=15		;CHARACTER FLAGS
    11			000014	01100	C=14		;CHARACTER
    12			000013	01200	BUF=13
    13			000012	01300	BLK=12
    14			000011	01400	DPTR=11		;POINTER TO DATE STRING
    15			000010	01500	DCNT=10		;NUMBER OF CHRS LEFT TO PUT IN DATE STRING
    16			000007	01600	ITEM=7	;BACK FROM THE SCANNER
    17			000006	01700	CODE=6		;ALSO BACK FROM THE SCANER
    18
    19				01900	;FLAGS IN F (RH)
    20
    21			000001	02100	IDF==1		;IDENT SEEN BY SCANNER
    22			000002	02200	NUMF==2		;NUMBER SEEN BY SCANNER
    23			000004	02300	FNEED1==4	;FLAG FOR DATES, A DATE NEEDED
    24			000010	02400	FEXCPT==10	;FLAG FOR DATES, IN EXCEPT
    25			000020	02500	FREF==20	;FLAG FOR DATES, READ A REFERENCE (ETC.) DATE
    26			000040	02600	FRDATE==40	;FLAG FOR DATES, REAL DATE (USED BY REF)
    27			000100	02700	FBEF==100	;IN A BEFORE OR AFTER STREAM
    28			000200	02800	FREF2==200	;FLAG FOR BETWEEN ( IS PERMITTED ELSE LIKE FREF
    29			000400	02900	circ==400	;flag for circuit built (alarm)
    30
    31			000001	03100	TTY==1
    32			000002	03200	REM==2
    33			000003	03300	MAL==3		;MAILBOX
    34
    35				03500	;FLAGS IN LH OF COMMAND TABLE
    36
    37			400000	03700	DIPRS==400000	;DISPATCH ADDRESS PRESENT
    38			200000	03800	DSPIND==200000		;DISPATCH INCREMENT PRESENT
    39			100000	03900	RSTERR==100000		;RESET ERROR TABLE
    40			040000	04000	SETPRI==040000		;"PRIMARY" COMMAND
    41			020000	04100	STPSCN==020000		;DISPATCH NOW, END OF COMMAND
    42
    43			000040	04300	PDLSZ==40
    44			000020	04400	PDLSZ2==20
    45
    46
    47			000177	04700	MALHSH==177	;HASH FOR LOOKING AT MAILBOX
    48
    49			000156	04900	DATSIZ==^D110	;SIZE OF DATE STORAGE (MAX)
RDATE - MOST OF THE REMIND DATE CODE	MACRO 12.5-46.0 21:52  2-MAR-81 PAGE 2
RPARAM.MAC	12-APR-78 19:35	

    50				00100	;DEFINITION OF MACRO TO GENERATE THE FIRST 3 WORDS OF SIXBIT
    51
    52				00300		DEFINE WRD(A,B)
    53				00400	<ZZ==0
    54				00500	ZZ1==0
    55				00600		IRPC A,<ZZ=ZZ+1
    56				00700	IFG ZZ-B,<IFLE ZZ-B-6,<ZZ1==ZZ1_6+''A''>>>
    57				00800	IFL ZZ-B-6,<ZZ1==ZZ1_<<B+6-ZZ>*6>>
    58				00900		ZZ1>
    59				01000		DEFINE TABLE (A)
    60				01100	<	DEFINE X(B,C,D,E)
    61				01200	<	WRD (B,0)>
    62				01300		A
    63				01400		DEFINE X(B,C,D,E)
    64				01500	<	WRD (B,6)>
    65				01600		A
    66				01700		DEFINE X(B,C,D,E)
    67				01800	<	WRD (B,^D12)>
    68				01900		A>
RDATE - MOST OF THE REMIND DATE CODE	MACRO 12.5-46.0 21:52  2-MAR-81 PAGE 1
RDATE.MAC	19-JUN-78 15:28	

    69				00100	TITLE RDATE - MOST OF THE REMIND DATE CODE
    70
    71
    72				00300	;IN RSCAN
    73				00400	EXTERNAL SCANI,SCAN,NMSC,TERMF
    74				00500	;IN RCDATE
    75				00600	EXTERNAL LSTDAT,LSTTDY
    76				00700	EXTERNAL DATBUF,SVDPTR,GENTDY,ORGREF,YDCNV,GENDAT,PRDAT
    77				00800	EXTERNAL DATTIM,DATWRN,DATTXT,INIDAT,NXTDAT,DATCNT,DATNMB
    78				00900	EXTERNAL MDWDLN,DWDLN3,DWDTB,YEAR,MONTH,DAY,FNDDAT,MTARG
    79				01000	EXTERNAL WKDPTR,MONPTR,PRDAT1,GETNUM,DATREF,DATDL1,DATCNC
    80				01100	;IN RCOM
    81				01200	EXTERNAL PDL,PDL2,CPOPJ1,OUTNUM,CPOPJ,OUTSIX
    82				01300	;IN RMAIN
    83				01400	EXTERNAL CMD
    84				01500	;IN RRMD
    85				01600	EXTERNAL NONUM,NONUM0,RDNAM,NAMBUF
    86				01700	;IN RIO
    87				01800	EXTERNAL REMGET,RDBUF,BUFDTA,WRTBUF,BUFBLK
    88
    89				02000	INTERNAL ITMDOW,ITMNUM,ITMNM1,ITMNM2,ITMDOT,ITMMN,ITMOR
    90				02100	INTERNAL ITMREF,ITMUNT,ITMFRV,ITMEXC,ITMBET,ITMAND,ITMMON
    91				02200	INTERNAL ITMDAY,ITMBEF,ITMAFT,ITMEND,ITMTDY,ITMYST,ITMTMR
    92				02300	INTERNAL DTEST,INSDAT,DATDIS,LADTS,DELDAT,LPRDAT,LPRTDY
    93				02400	INTERNAL DATCNL,DATUNC,LIDAT,CHGDAT,DATNXT
    94				02500	internal gtime,depnum,insdt1
RDATE - MOST OF THE REMIND DATE CODE	MACRO 12.5-46.0 21:52  2-MAR-81 PAGE 2
RDATE.MAC	19-JUN-78 15:28	

    95				00010	;DATE HANDLING CODE
    96
    97				00030	;FIRST THE SCANNER WHICH GETS INPUT
    98
    99	000000'	260740	000000*	00050	ITMSCN:	PUSHJ P,SCAN
   100	000001'	326640	000014'	00060	ITMSC1:	JUMPN CS,ITMSPC	;SPECIAL CHARACTER
   101	000002'	602000	000002	00070		TRNE FL,NUMF	;OR NUMBER?
   102	000003'	254000	000025'	00080		JRST ITMNMB	;YES
   103	000004'	200040	001755'	00090		MOVE T1,[XWD MDWDLN,DWDTB]
   104	000005'	260740	000000*	00100		PUSHJ P,NMSC	;FIND THE MATCH
   105	000006'	254000	000000'	00110		 JRST ITMSCN	;NO RECOGNIZED, IGNORE NOISE WORDS
   106	000007'	335001	000000*	00120		SKIPGE DWDLN3(T1)	;-1 IS A FLAG FOR IGNORE THIS
   107	000010'	254000	000000'	00130		JRST ITMSCN
   108	000011'	550341	000007*	00140		HRRZ ITEM,DWDLN3(T1)	;GET THE TYPE OF ITEM
   109	000012'	554301	000011*	00150		HLRZ CODE,DWDLN3(T1)	;AND THE EXACT MEANING
   110	000013'	263740	000000	00160		POPJ P,
   111
   112	000014'	205040	777775	00180	ITMSPC:	MOVSI T1,-SPCLEN
   113	000015'	312641	000031'	00190		CAME CS,SPCTBL(T1)	;FIND CHARACTER IN TABLE
   114	000016'	253040	000015'	00200		AOBJN T1,.-1
   115	000017'	325040	000000'	00210		JUMPGE T1,ITMSCN	;FAIL
   116	000020'	554301	000034'	00220		HLRZ CODE,SPCTBL+SPCLEN(T1)
   117	000021'	550341	000034'	00230		HRRZ ITEM,SPCTBL+SPCLEN(T1)
   118	000022'	263740	000000	00240		POPJ P,
   119	000023'	201300	000000	00250		MOVEI CODE,0
   120	000024'	263740	000000	00260		POPJ P,
   121
   122	000025'	322140	000000'	00280	ITMNMB:	JUMPE T3,ITMSCN	;IGNORE 0
   123	000026'	201340	000000	00290		MOVEI ITEM,ITMNUM
   124	000027'	200300	000003	00300		MOVE CODE,T3	;GET THE NUMBER
   125	000030'	263740	000000	00310		POPJ P,
   126
   127				00330		DEFINE SPC
   128				00340	<	X .,ITMDOT,0
   129				00350		X <(>,ITMLPR,20
   130				00360		X <)>,ITMRPR,21
   131				00370	>
   132				00380		DEFINE X(A,B,C)
   133				00390	<	"A">
   134
   135	000031'	000000	000056	00410	SPCTBL:	SPC^	X .,ITMDOT,0^	"."^
   136	000032'	000000	000050			X <(>,ITMLPR,20^	"("^
   137	000033'	000000	000051			X <)>,ITMRPR,21^	")"^
   138			000003	00420	SPCLEN==.-SPCTBL
   139
   140				00440		DEFINE X(A,B,C)
   141				00450	<	XWD ^D'C,B>
   142	000034'	000000	000003	00460		SPC^	X .,ITMDOT,0^	XWD ^D0,ITMDOT^
   143	000035'	000024	000022			X <(>,ITMLPR,20^	XWD ^D20,ITMLPR^
   144	000036'	000025	000023			X <)>,ITMRPR,21^	XWD ^D21,ITMRPR^
RDATE - MOST OF THE REMIND DATE CODE	MACRO 12.5-46.0 21:52  2-MAR-81 PAGE 3
RDATE.MAC	19-JUN-78 15:28	

   145				00010	;HERE TO READ A DATE INTO DATE BUFFER
   146
   147	000037'	051140	001756'	00030	RDATE:	OUTSTR [ASCIZ /Date: /]
   148	000040'	260740	000000*	00040		PUSHJ P,SCANI
   149	000041'	603640	000000*	00050		TLNE CS,TERMF
   150	000042'	254000	000054'	00060		JRST KEPDAT	;KEEP DATE IN DATE BUFFER
   151	000043'	306640	000043	00070		CAIN CS,"#"
   152	000044'	254000	000103'	00080		JRST FILDAT	;A SPECIFIC DATE FROM FILE
   153	000045'	260740	000120'	00090		PUSHJ P,RDTTY	;READ FROM TELETYPE
   154	000046'	275440	777777*	00100		SUBI DPTR,DATBUF-1
   155	000047'	201051	000043	00110		MOVEI T1,^D17+^D18(DPTR)
   156	000050'	231040	000023	00120		IDIVI T1,^D19	;GET SIZE
   157	000051'	221040	000023	00130		IMULI T1,^D19	;AS A MULTIPLE OF 19
   158	000052'	202040	000000*	00140		MOVEM T1,DATCNT
   159	000053'	263740	000000	00150		POPJ P,
   160
   161	000054'	332000	000000*	00170	KEPDAT:	SKIPE DATBUF
   162	000055'	254000	000111'	00180		JRST COMBUF	;THERE IS ONE, MAKE SURE SVDPTR SET
   163				00190		OUTSTR [ASCIZ /
   164				00200	No current date.
   165	000056'	051140	001760'	00210	/]
   166	000057'	254000	000000*	00220		JRST CMD
   167
   168	000060'	606000	000002	00240	DATFND:	TRNN FL,NUMF
   169	000061'	254000	000000*	00250		JRST NONUM
   170	000062'	202140	001747'	00260	DATFN1:	MOVEM T3,DESDAT#
   171	000063'	260740	000000*	00270		PUSHJ P,INIDAT
   172	000064'	254000	000116'	00280		 JRST NSDT	;NO DATES AT ALL SO NOT THIS ONE
   173	000065'	254000	000067'	00290		 JRST FILDT1	;CHECK ON NUMBER
   174	000066'	254000	000075'	00300		JRST TRYDAT	;FOUND ONE, CHECK NUMBER
   175	000067'	200100	000000*	00310	FILDT1:	MOVE T2,DATNMB
   176	000070'	311100	001747'	00320		CAML T2,DESDAT
   177	000071'	254000	000116'	00330		JRST NSDT	;HAVE ALREADY LOST
   178	000072'	260740	000000*	00340		PUSHJ P,NXTDAT
   179	000073'	254000	000116'	00350		 JRST NSDT
   180	000074'	254000	000067'	00360		 JRST FILDT1
   181	000075'	200100	000067*	00370	TRYDAT:	MOVE T2,DATNMB
   182	000076'	313100	001747'	00380		CAMLE T2,DESDAT
   183	000077'	254000	000116'	00390		JRST NSDT	;ALREADY TOO BIG
   184	000100'	312100	001747'	00400		CAME T2,DESDAT
   185	000101'	254000	000067'	00410		JRST FILDT1	;TOO SMALL, TRY AGAIN
   186	000102'	263740	000000	00420		POPJ P,
   187
   188	000103'	260740	000000*	00440	FILDAT:	PUSHJ P,SCAN
   189	000104'	260740	000060'	00450		PUSHJ P,DATFND
   190	000105'	200115	000000	00460		MOVE T2,(CS)
   191	000106'	507000	000015	00470		HRLS CS
   192	000107'	541640	000052*	00480		HRRI CS,DATCNT
   193	000110'	251642	777777*	00490		BLT CS,DATCNT-1(T2)	;MOVE TO DATE BUFFER
   194	000111'	200440	001765'	00500	COMBUF:	MOVE DPTR,[POINT 5,DATBUF]
   195	000112'	202440	000000*	00510		MOVEM DPTR,SVDPTR
   196	000113'	200040	000000*	00520		MOVE T1,ORGREF
   197	000114'	202040	000000*	00530		MOVEM T1,DATREF
RDATE - MOST OF THE REMIND DATE CODE	MACRO 12.5-46.0 21:52  2-MAR-81 PAGE 3-2
RDATE.MAC	19-JUN-78 15:28	

   198	000115'	263740	000000	00540		POPJ P,
   199
   200				00560	NSDT:	OUTSTR [ASCIZ /
   201				00570	No date with that number.
   202	000116'	051140	001766'	00580	/]
   203	000117'	254000	000057*	00590		JRST CMD
RDATE - MOST OF THE REMIND DATE CODE	MACRO 12.5-46.0 21:52  2-MAR-81 PAGE 4
RDATE.MAC	19-JUN-78 15:28	

   204				00010	;GET THE DATE FROM THE TELETYPE
   205
   206	000120'	402000	000054*	00030	RDTTY:	SETZM DATBUF
   207	000121'	402000	001752'	00040		SETZM PLEVEL#	;NESTING LEVEL OF PARENS
   208	000122'	200440	001765'	00050		MOVE DPTR,[POINT 5,DATBUF]
   209	000123'	202440	000112*	00060		MOVEM DPTR,SVDPTR	;SAVE FOR LATER
   210	000124'	201400	001401	00070		MOVEI DCNT,DATSIZ*7-1	;1 EXTRA FOR END
   211	000125'	261740	000003	00080		PUSH P,T3
   212	000126'	260740	000000*	00090		PUSHJ P,GENTDY		;GET TODAYS DATE
   213	000127'	262740	000003	00100		POP P,T3	;SAVE T3 FROM GENTDY (IN CASE NUMBER)
   214	000130'	202040	000113*	00110		MOVEM T1,ORGREF	;SET THE ORIGINAL REFERENCE DATE
   215	000131'	202040	000114*	00120		MOVEM T1,DATREF
   216	000132'	620000	000330	00130		TRZ FL,FEXCPT!FREF!FBEF!FREF2
   217	000133'	660000	000004	00140		TRO FL,FNEED1
   218	000134'	260740	000001'	00150		PUSHJ P,ITMSC1		;SCAN FOR ITEM WITH SCAN DONE
   219	000135'	254000	000137'	00160		JRST RDA1
   220
   221	000136'	260740	000000'	00180	RDA0:	PUSHJ P,ITMSCN
   222	000137'	254027	000140'	00190	RDA1:	JRST @ITMTB(ITEM)	;GO
   223
   224	000000			00210	ITMTB:	PHASE 0
   225	000140'	254000	000464'	00220	ITMNUM:! JRST DATNUM
   226	000141'	254000	000606'	00230	ITMNM1:! JRST DATNM1
   227	000142'	254000	000625'	00240	ITMNM2:! JRST DATNM2
   228	000143'	254000	000174'	00250	ITMDOT:! JRST DATEND
   229	000144'	254000	000663'	00260	ITMDOW:! JRST DATDOW
   230	000145'	254000	000424'	00270	ITMMN:!  JRST DATMNM
   231	000146'	254000	000204'	00280	ITMOR:!  JRST DATOR
   232	000147'	254000	000216'	00290	ITMREF:! JRST DATRFN
   233	000150'	254000	000235'	00300	ITMUNT:! JRST DATUNT
   234	000151'	254000	000167'	00310	ITMFRV:! JRST ILLDAT
   235	000152'	254000	000316'	00320	ITMEXC:! JRST DATEXC
   236	000153'	254000	000326'	00330	ITMBET:! JRST DATBET
   237	000154'	254000	000167'	00340	ITMAND:! JRST ILLDAT
   238	000155'	254000	000353'	00350	ITMMON:! JRST DATMON
   239	000156'	254000	000411'	00360	ITMDAY:! JRST DATDAY
   240	000157'	254000	000167'	00370	ITMBEF:! JRST ILLDAT
   241	000160'	254000	000167'	00380	ITMAFT:! JRST ILLDAT
   242	000161'	254000	000647'	00390	ITMEND:! JRST DATEN1
   243	000162'	254000	000246'	00400	ITMLPR:! JRST DATLPR
   244	000163'	254000	000266'	00410	ITMRPR:! JRST DATRPR
   245	000164'	254000	000302'	00420	ITMTDY:	JRST DATTDY
   246	000165'	254000	000312'	00430	ITMYST:	JRST DATYST
   247	000166'	254000	000314'	00440	ITMTMR:	JRST DATTMR
   248	000167'			00450		DEPHASE
   249
   250				00470	ILLDAT:	OUTSTR [ASCIZ /
   251	000167'	051140	001774'	00480	Illegal date construct./]
   252	000170'	402000	000120*	00490	ILLDCM:	SETZM DATBUF
   253	000171'	200740	002002'	00500		MOVE P,[IOWD PDLSZ,PDL]
   254	000172'	200700	002003'	00510		MOVE P2,[IOWD PDLSZ2,PDL2]	;RESTORE IN CASE OFF
   255	000173'	254000	000117*	00520		JRST CMD
   256
RDATE - MOST OF THE REMIND DATE CODE	MACRO 12.5-46.0 21:52  2-MAR-81 PAGE 4-2
RDATE.MAC	19-JUN-78 15:28	

   257				00540		DEFINE SDATE(A)
   258				00550	<	IDPB A,DPTR
   259				00560		SOJL DCNT,DATLNG>
   260
   261				00580		DEFINE MDATE(A)
   262				00590	<	MOVE T1,A
   263				00600		SDATE (T1)>
   264
   265				00620		DEFINE IDATE(A)
   266				00630	<	MOVEI T1,A
   267				00640		SDATE (T1)>
RDATE - MOST OF THE REMIND DATE CODE	MACRO 12.5-46.0 21:52  2-MAR-81 PAGE 5
RDATE.MAC	19-JUN-78 15:28	

   268	000174'	602000	000004	00010	DATEND:	TRNE FL,FNEED1	;END OF DATE SPEC
   269	000175'	254000	000202'	00020		JRST FINDAT
   270	000176'	332000	001752'	00030		SKIPE PLEVEL
   271	000177'	254000	000300'	00040		JRST ILLUMP	;UNMATCHED PARENS
   272	000200'	136300	000011	00050		IDPB CODE,DPTR
   273	000201'	263740	000000	00060		POPJ P,
   274
   275				00080	FINDAT:	OUTSTR [ASCIZ /
   276	000202'	051140	002004'	00090	Need a final date specification./]
   277	000203'	254000	000170'	00100		JRST ILLDCM
   278
   279	000204'	602000	000004	00120	DATOR:	TRNE FL,FNEED1	;OR, COMBINE DATES
   280	000205'	254000	000212'	00130		JRST ILLOR
   281	000206'	136300	000011	00140		SDATE (CODE)^	IDPB CODE,DPTR
   282	000207'	361400	000214'			SOJL DCNT,DATLNG^
   283	000210'	660000	000004	00150		TRO FL,FNEED1	;NOW WE NEED A DATE
   284	000211'	254000	000136'	00160		JRST RDA0	;GO SCAN SOME MORE
   285
   286				00180	ILLOR:	OUTSTR [ASCIZ /
   287	000212'	051140	002013'	00190	Need a date specification before "or"./]
   288	000213'	254000	000170'	00200		JRST ILLDCM
   289
   290				00220	DATLNG:	OUTSTR [ASCIZ /
   291	000214'	051140	002024'	00230	Date expression too long./]
   292	000215'	254000	000170'	00240		JRST ILLDCM
   293
   294	000216'	606000	000320	00260	DATRFN:	TRNN FL,FREF!FBEF!FREF2
   295	000217'	606000	000004	00270		TRNN FL,FNEED1
   296	000220'	254000	000167'	00280		JRST ILLDAT	;ALREADY IN A REF OR BEFORE
   297	000221'	136300	000011	00290		SDATE (CODE)^	IDPB CODE,DPTR
   298	000222'	361400	000214'			SOJL DCNT,DATLNG^	;PUT IN CODE
   299	000223'	260740	000000'	00300		PUSHJ P,ITMSCN
   300	000224'	660000	000064	00310	DATCRF:	TRO FL,FNEED1!FREF!FRDATE	;NEED A REAL DATE
   301	000225'	260740	000137'	00320		PUSHJ P,RDA1
   302	000226'	606000	000040	00330		TRNN FL,FRDATE
   303	000227'	254000	000233'	00340		JRST ILLREF	;NEED A DEFINITE DATE
   304	000230'	620000	000020	00350		TRZ FL,FREF
   305	000231'	660000	000004	00360		TRO FL,FNEED1
   306	000232'	254000	000137'	00370		JRST RDA1	;ONE EXTRA HAS BEEN SCANED
   307
   308				00390	ILLREF:	OUTSTR [ASCIZ /
   309	000233'	051140	002032'	00400	Date after "reference", "starting", or "until" may not be cyclic./]
   310	000234'	254000	000170'	00410		JRST ILLDCM
   311
   312	000235'	602000	000320	00430	DATUNT:	TRNE FL,FREF!FBEF!FREF2	;SORT OF LIKE ABOVE
   313	000236'	254000	000167'	00440		JRST ILLDAT
   314	000237'	136300	000011	00450		SDATE (CODE)^	IDPB CODE,DPTR
   315	000240'	361400	000214'			SOJL DCNT,DATLNG^
   316	000241'	260740	000000'	00460		PUSHJ P,ITMSCN
   317	000242'	302340	000011	00470		CAIE ITEM,ITMFRV	;BUT CHECK FOR UNTIL FOREVER
   318	000243'	254000	000224'	00480		JRST DATCRF		;NO
   319	000244'	137300	000011	00490		DPB CODE,DPTR		;REPLACE CODE WITH FOREVER
   320	000245'	254000	000136'	00500		JRST RDA0		;AND GO
RDATE - MOST OF THE REMIND DATE CODE	MACRO 12.5-46.0 21:52  2-MAR-81 PAGE 6
RDATE.MAC	19-JUN-78 15:28	

   321	000246'	602000	000004	00010	DATLPR:	TRNE FL,FNEED1		;MUST WANT A DATE
   322	000247'	602000	000120	00020		TRNE FL,FREF!FBEF	;MUST NOT BE IN A BAD PLACE
   323	000250'	254000	000274'	00030		JRST ILLLPR		;NOT PERMITED HERE
   324	000251'	136300	000011	00040		SDATE (CODE)^	IDPB CODE,DPTR
   325	000252'	361400	000214'			SOJL DCNT,DATLNG^
   326	000253'	350000	001752'	00050		AOS PLEVEL
   327	000254'	261740	000000	00060		PUSH P,FL
   328	000255'	620000	000210	00070		TRZ FL,FREF2!FEXCPT	;ANOTHER EXCEPT PERMITTED
   329	000256'	254000	000136'	00080		JRST RDA0
   330	000257'	262740	000001	00090	RPR1:	POP P,T1
   331	000260'	602040	000010	00100		TRNE T1,FEXCPT
   332	000261'	664000	000010	00110		TROA FL,FEXCPT
   333	000262'	620000	000010	00120		TRZ FL,FEXCPT	;PUT EXCEPT FLAG BACK
   334	000263'	606040	000200	00130		TRNN T1,FREF2
   335	000264'	254000	000136'	00140		JRST RDA0	;GET MORE
   336	000265'	254000	000000'	00150		JRST ITMSCN
   337
   338	000266'	606000	000124	00170	DATRPR:	TRNN FL,FREF!FBEF!FNEED1
   339	000267'	375000	001752'	00180		SOSGE PLEVEL
   340	000270'	254000	000276'	00190		JRST ILLRPR	;BAD PLACE OR NOT MATCHED
   341	000271'	136300	000011	00200		SDATE (CODE)^	IDPB CODE,DPTR
   342	000272'	361400	000214'			SOJL DCNT,DATLNG^
   343	000273'	254000	000257'	00210		JRST RPR1
   344
   345				00230	ILLLPR:	OUTSTR [ASCIZ /
   346	000274'	051140	002050'	00240	"(" may not appear in this context./]
   347	000275'	254000	000170'	00250		JRST ILLDCM
   348
   349				00270	ILLRPR:	OUTSTR [ASCIZ /
   350	000276'	051140	002060'	00280	")" with no "("./]
   351	000277'	254000	000170'	00290		JRST ILLDCM
   352
   353				00310	ILLUMP:	OUTSTR [ASCIZ /
   354	000300'	051140	002064'	00320	Unmatched parentheses./]
   355	000301'	254000	000170'	00330		JRST ILLDCM
   356
   357	000302'	260740	000126*	00350	DATTDY:	PUSHJ P,GENTDY
   358	000303'	606000	000004	00360	TDYCOM:	TRNN FL,FNEED1
   359	000304'	254000	000167'	00370		JRST ILLDAT
   360	000305'	136300	000011	00380		SDATE (CODE)^	IDPB CODE,DPTR
   361	000306'	361400	000214'			SOJL DCNT,DATLNG^
   362	000307'	260740	000452'	00390		PUSHJ P,DEPNUM
   363	000310'	260740	000000'	00400		PUSHJ P,ITMSCN
   364	000311'	254000	000403'	00410		JRST RDB1
   365
   366	000312'	260740	000302*	00430	DATYST:	PUSHJ P,GENTDY
   367	000313'	364040	000303'	00440		SOJA T1,TDYCOM	;YESTERDAY
   368
   369	000314'	260740	000312*	00460	DATTMR:	PUSHJ P,GENTDY
   370	000315'	344040	000303'	00470		AOJA T1,TDYCOM	;TOMORROW
RDATE - MOST OF THE REMIND DATE CODE	MACRO 12.5-46.0 21:52  2-MAR-81 PAGE 7
RDATE.MAC	19-JUN-78 15:28	

   371	000316'	602000	000334	00010	DATEXC:	TRNE FL,FNEED1!FEXCPT!FREF!FBEF!FREF2	;EXCEPT CAN NOT BE IN FUNNLY PLACE
   372	000317'	254000	000324'	00020		JRST ILLEXC
   373	000320'	136300	000011	00030		SDATE (CODE)^	IDPB CODE,DPTR
   374	000321'	361400	000214'			SOJL DCNT,DATLNG^
   375	000322'	660000	000014	00040		TRO FL,FNEED1!FEXCPT
   376	000323'	254000	000136'	00050		JRST RDA0
   377
   378				00070	ILLEXC:	OUTSTR [ASCIZ /
   379	000324'	051140	002071'	00080	Illegal use of "except"./]
   380	000325'	254000	000170'	00090		JRST ILLDCM
   381
   382	000326'	602000	000004	00110	DATBET:	TRNE FL,FNEED1	;BETWEEN
   383	000327'	602000	000120	00120		TRNE FL,FREF!FBEF
   384	000330'	254000	000347'	00130		JRST ILLBET
   385	000331'	660000	000204	00140		TRO FL,FREF2!FNEED1	;NEED A REF TYPP DATE
   386	000332'	136300	000011	00150		SDATE (CODE)^	IDPB CODE,DPTR
   387	000333'	361400	000214'			SOJL DCNT,DATLNG^
   388	000334'	260740	000136'	00160		PUSHJ P,RDA0
   389	000335'	302340	000014	00170		CAIE ITEM,ITMAND
   390	000336'	254000	000351'	00180		JRST ILLNAN
   391	000337'	136300	000011	00190		SDATE (CODE)^	IDPB CODE,DPTR
   392	000340'	361400	000214'			SOJL DCNT,DATLNG^
   393	000341'	660000	000204	00200		TRO FL,FREF2!FNEED1
   394	000342'	260740	000136'	00210		PUSHJ P,RDA0
   395	000343'	660000	000204	00220		TRO FL,FREF2!FNEED1
   396	000344'	260740	000137'	00230		PUSHJ P,RDA1		;READ THE DATE TO APPLY BETWEEN TO
   397	000345'	620000	000204	00240		TRZ FL,FREF2!FNEED1
   398	000346'	254000	000137'	00250		JRST RDA1		;CONTINUE
   399
   400				00270	ILLBET:	OUTSTR [ASCIZ /
   401	000347'	051140	002077'	00280	Illegal use of "between"./]
   402	000350'	254000	000170'	00290		JRST ILLDCM
   403
   404				00310	ILLNAN:	OUTSTR [ASCIZ /
   405	000351'	051140	002105'	00320	"Between" not followed by "and"./]
   406	000352'	254000	000170'	00330		JRST ILLDCM
   407
   408	000353'	606000	000004	00350	DATMON:	TRNN FL,FNEED1	;MUST REALLY WANT A DATE
   409	000354'	254000	000167'	00360		JRST ILLDAT
   410	000355'	402000	000000*	00370		SETZM MONTH	;SARTS WITH MONTH, MUST BE JUST THAT
   411	000356'	201300	000001	00380		MOVEI CODE,1
   412	000357'	202300	000000*	00390		MOVEM CODE,DAY
   413	000360'	202300	001751'	00400		MOVEM CODE,N1#
   414	000361'	260740	000000'	00410	CODE5S:	PUSHJ P,ITMSCN
   415	000362'	201040	000005	00420	CODE5:	IDATE (5)^	MOVEI T1,5
   416	000363'	136040	000011			SDATE (T1)^	IDPB T1,DPTR
   417	000364'	361400	000214'			SOJL DCNT,DATLNG^^
   418	000365'	200040	000357*	00430		MOVE T1,DAY
   419	000366'	603040	777777	00440		TLNE T1,-1
   420				00450		JRST	[MOVEI T1,0	;EVERY DAY
   421	000367'	254000	002114'	00460			JRST CODE5B]
   422	000370'	303040	000037	00470		CAILE T1,^D31
   423	000371'	254000	000407'	00480		JRST BIGDOM	;DAY OF MONTH TOO LARGE
RDATE - MOST OF THE REMIND DATE CODE	MACRO 12.5-46.0 21:52  2-MAR-81 PAGE 7-2
RDATE.MAC	19-JUN-78 15:28	

   424	000372'	136040	000011	00490	CODE5B:	SDATE (T1)^	IDPB T1,DPTR
   425	000373'	361400	000214'			SOJL DCNT,DATLNG^
   426	000374'	200040	000355*	00500	CODE5C:	MDATE (MONTH)^	MOVE T1,MONTH
   427	000375'	136040	000011			SDATE (T1)^	IDPB T1,DPTR
   428	000376'	361400	000214'			SOJL DCNT,DATLNG^^
   429	000377'	326040	000402'	00510		JUMPN T1,RDB0
   430	000400'	200040	001751'	00520		MOVE T1,N1
   431	000401'	260740	000452'	00530		PUSHJ P,DEPNUM
   432	000402'	620000	000040	00540	RDB0:	TRZ FL,FRDATE
   433	000403'	620000	000104	00550	RDB1:	TRZ FL,FNEED1!FBEF
   434	000404'	606000	000220	00560		TRNN FL,FREF!FREF2
   435	000405'	254000	000137'	00570		JRST RDA1
   436	000406'	263740	000000	00580		POPJ P,
   437
   438				00600	BIGDOM:	OUTSTR [ASCIZ /
   439	000407'	051140	002116'	00610	No months with more than 31 days./]
   440	000410'	254000	000170'	00620		JRST ILLDCM
RDATE - MOST OF THE REMIND DATE CODE	MACRO 12.5-46.0 21:52  2-MAR-81 PAGE 8
RDATE.MAC	19-JUN-78 15:28	

   441	000411'	606000	000004	00010	DATDAY:	TRNN FL,FNEED1
   442	000412'	254000	000167'	00020		JRST ILLDAT
   443	000413'	201040	000001	00030		MOVEI T1,1
   444	000414'	562040	000365*	00040		HRROM T1,DAY
   445	000415'	254000	000475'	00050		JRST DTCMV
   446
   447	000416'	201040	000002	00070	CODE2:	IDATE (2)^	MOVEI T1,2
   448	000417'	136040	000011			SDATE (T1)^	IDPB T1,DPTR
   449	000420'	361400	000214'			SOJL DCNT,DATLNG^^
   450	000421'	550040	000414*	00080		HRRZ T1,DAY
   451	000422'	260740	000452'	00090		PUSHJ P,DEPNUM
   452	000423'	254000	000402'	00100		JRST RDB0
   453
   454	000424'	606000	000004	00120	DATMNM:	TRNN FL,FNEED1
   455	000425'	254000	000167'	00130		JRST ILLDAT
   456	000426'	202300	000374*	00140		MOVEM CODE,MONTH	;MONTH NAME, MAY BE DATE OR
   457	000427'	260740	000000'	00150		PUSHJ P,ITMSCN		;SAY JUNE  25
   458	000430'	306340	000000	00160		CAIN ITEM,ITMNUM
   459	000431'	254000	000435'	00170		JRST DATMNU
   460	000432'	201040	000001	00180		MOVEI T1,1	;JUST A MONTH NAME (1ST DAY)
   461	000433'	202040	000421*	00190		MOVEM T1,DAY
   462	000434'	254000	000362'	00200		JRST CODE5
   463
   464	000435'	202300	000433*	00220	DATMNU:	MOVEM CODE,DAY	;MONTH NAME NUMBER
   465	000436'	260740	000000'	00230	DTCMI:	PUSHJ P,ITMSCN
   466	000437'	302340	000000	00240		CAIE ITEM,ITMNUM
   467	000440'	254000	000362'	00250		JRST CODE5	;JUST THAT, NO YEAR
   468	000441'	202300	000000*	00260		MOVEM CODE,YEAR	;A REAL DATE
   469	000442'	201040	000023	00270		IDATE (^D19)^	MOVEI T1,^D19
   470	000443'	136040	000011			SDATE (T1)^	IDPB T1,DPTR
   471	000444'	361400	000214'			SOJL DCNT,DATLNG^^
   472	000445'	260740	000000*	00280		PUSHJ P,YDCNV	;CONVERT TO A NUMBER OF DAYS SINCE START
   473	000446'	254000	000167'	00290		JRST ILLDAT
   474	000447'	260740	000452'	00300		PUSHJ P,DEPNUM
   475	000450'	260740	000000'	00310		PUSHJ P,ITMSCN
   476	000451'	254000	000403'	00320		JRST RDB1
   477
   478	000452'	200100	000001	00340	DEPNUM:	MOVE T2,T1
   479	000453'	242040	777774	00350		LSH T1,-4
   480	000454'	322040	000461'	00360		JUMPE T1,DEPFIN	;FINISHED WITH NUMBER
   481	000455'	660100	000020	00370		TRO T2,20	;MARK AS CONTINUED
   482	000456'	136100	000011	00380		SDATE (T2)^	IDPB T2,DPTR
   483	000457'	361400	000214'			SOJL DCNT,DATLNG^
   484	000460'	254000	000452'	00390		JRST DEPNUM
   485	000461'	136100	000011	00400	DEPFIN:	SDATE (T2)^	IDPB T2,DPTR
   486	000462'	361400	000214'			SOJL DCNT,DATLNG^
   487	000463'	263740	000000	00410		POPJ P,
RDATE - MOST OF THE REMIND DATE CODE	MACRO 12.5-46.0 21:52  2-MAR-81 PAGE 9
RDATE.MAC	19-JUN-78 15:28	

   488	000464'	606000	000004	00010	DATNUM:	TRNN FL,FNEED1
   489	000465'	254000	000167'	00020		JRST ILLDAT
   490	000466'	202300	000435*	00030		MOVEM CODE,DAY	;STARTS WITH NUMBER
   491	000467'	260740	000000'	00040		PUSHJ P,ITMSCN
   492	000470'	302340	000005	00050		CAIE ITEM,ITMMN	;MONTH OR ANOTHR #
   493	000471'	306340	000000	00060		CAIN ITEM,ITMNUM
   494				00070		JRST	[MOVEM CODE,MONTH
   495	000472'	254000	002126'	00080			JRST DTCMI]
   496	000473'	302340	000016	00090		CAIE ITEM,ITMDAY
   497	000474'	254000	000526'	00100		JRST DATDY1
   498	000475'	402000	000426*	00110	DTCMV:	SETZM MONTH	;WORD DAY AS 3 DAYS OR 3 DAY OF JUNE ETC.
   499	000476'	260740	000000'	00120		PUSHJ P,ITMSCN
   500	000477'	306340	000017	00130		CAIN ITEM,ITMBEF	;CHECK BEFORE OR AFTER
   501	000500'	254000	000711'	00140		JRST CODE7
   502	000501'	306340	000020	00150		CAIN ITEM,ITMAFT
   503	000502'	254000	000670'	00160		JRST CODE8
   504	000503'	260740	000506'	00170	DTCMII:	PUSHJ P,DTSBII
   505	000504'	254000	000361'	00180		 JRST CODE5S
   506	000505'	254000	000416'	00190		JRST CODE2	;JUST 3 DAYS
   507
   508	000506'	303340	000001	00210	DTSBII:	CAILE ITEM,ITMNM1
   509	000507'	254000	000515'	00220		JRST SBII1
   510	000510'	202300	001751'	00230		MOVEM CODE,N1	;MUST BE 3 DAYS 3 MONTHS
   511	000511'	260740	000000'	00240		PUSHJ P,ITMSCN
   512	000512'	302340	000015	00250		CAIE ITEM,ITMMON
   513	000513'	254000	000167'	00260		JRST ILLDAT
   514	000514'	263740	000000	00270		POPJ P,
   515
   516	000515'	302340	000015	00290	SBII1:	CAIE ITEM,ITMMON
   517	000516'	254000	000522'	00300		JRST SBII2
   518	000517'	201040	000001	00310		MOVEI T1,1	;MUST BE 3RD DAY EVERY MONTH
   519	000520'	202040	001751'	00320		MOVEM T1,N1
   520	000521'	263740	000000	00330		POPJ P,
   521
   522	000522'	302340	000005	00350	SBII2:	CAIE ITEM,ITMMN
   523	000523'	254000	000000*	00360		JRST CPOPJ1
   524	000524'	202300	000475*	00370		MOVEM CODE,MONTH	;MUST BE 3RD DAY OF JAN
   525	000525'	263740	000000	00380		POPJ P,
RDATE - MOST OF THE REMIND DATE CODE	MACRO 12.5-46.0 21:52  2-MAR-81 PAGE 10
RDATE.MAC	19-JUN-78 15:28	

   526	000526'	302340	000004	00010	DATDY1:	CAIE ITEM,ITMDOW	;STARTS 3RD WED
   527	000527'	254000	000602'	00020		JRST DATDY2
   528	000530'	402000	000524*	00030	DTCMIV:	SETZM MONTH
   529	000531'	202300	000441*	00040		MOVEM CODE,YEAR
   530	000532'	260740	000000'	00050		PUSHJ P,ITMSCN
   531	000533'	306340	000020	00060		CAIN ITEM,ITMAFT	;CHECK AFTER AND BEFORE
   532	000534'	254000	000677'	00070		JRST CODE10
   533	000535'	306340	000017	00080		CAIN ITEM,ITMBEF
   534	000536'	254000	000715'	00090		JRST CODE9
   535	000537'	260740	000506'	00100	DCMIII:	PUSHJ P,DTSBII
   536	000540'	254000	000552'	00110		 JRST CODE3S
   537	000541'	201040	000001	00120	CODE1:	IDATE (1)^	MOVEI T1,1
   538	000542'	136040	000011			SDATE (T1)^	IDPB T1,DPTR
   539	000543'	361400	000214'			SOJL DCNT,DATLNG^^	;JUST EVERY 3RD WED
   540	000544'	550040	000466*	00130		HRRZ T1,DAY
   541	000545'	260740	000452'	00140		PUSHJ P,DEPNUM
   542	000546'	200040	000531*	00150		MDATE (YEAR)^	MOVE T1,YEAR
   543	000547'	136040	000011			SDATE (T1)^	IDPB T1,DPTR
   544	000550'	361400	000214'			SOJL DCNT,DATLNG^^
   545	000551'	254000	000402'	00160		JRST RDB0
   546
   547	000552'	260740	000000'	00180	CODE3S:	PUSHJ P,ITMSCN
   548	000553'	201040	000003	00190	CODE3:	IDATE (3)^	MOVEI T1,3
   549	000554'	136040	000011			SDATE (T1)^	IDPB T1,DPTR
   550	000555'	361400	000214'			SOJL DCNT,DATLNG^^
   551	000556'	200040	000544*	00200		MOVE T1,DAY
   552	000557'	603040	777777	00210		TLNE T1,-1
   553				00220		JRST	[MOVEI T1,0	;SET EVERY FLAG
   554	000560'	254000	002130'	00230			JRST CODE3B]
   555	000561'	303040	000005	00240		CAILE T1,5
   556	000562'	254000	000600'	00250		JRST DOWTBG	;NOR MORE THAN 5 SOMETHING A MONTH
   557	000563'	136040	000011	00260	CODE3B:	SDATE (T1)^	IDPB T1,DPTR
   558	000564'	361400	000214'			SOJL DCNT,DATLNG^
   559	000565'	200040	000546*	00270	CODE3C:	MDATE (YEAR)^	MOVE T1,YEAR
   560	000566'	136040	000011			SDATE (T1)^	IDPB T1,DPTR
   561	000567'	361400	000214'			SOJL DCNT,DATLNG^^
   562	000570'	200040	000530*	00280		MDATE (MONTH)^	MOVE T1,MONTH
   563	000571'	136040	000011			SDATE (T1)^	IDPB T1,DPTR
   564	000572'	361400	000214'			SOJL DCNT,DATLNG^^
   565	000573'	326040	000402'	00290		JUMPN T1,RDB0
   566	000574'	200040	001751'	00300		MDATE (N1)^	MOVE T1,N1
   567	000575'	136040	000011			SDATE (T1)^	IDPB T1,DPTR
   568	000576'	361400	000214'			SOJL DCNT,DATLNG^^
   569	000577'	254000	000402'	00310		JRST RDB0
   570
   571				00330	DOWTBG:	OUTSTR [ASCIZ /
   572	000600'	051140	002132'	00340	Never more than 5 of any weekday in a month./]
   573	000601'	254000	000170'	00350		JRST ILLDCM
   574
   575	000602'	302340	000015	00370	DATDY2:	CAIE ITEM,ITMMON
   576	000603'	254000	000167'	00380		JRST ILLDAT
   577	000604'	402000	000570*	00390		SETZM MONTH	;EVERY 5 MONTHS
   578	000605'	254000	000621'	00400		JRST DATDY3
RDATE - MOST OF THE REMIND DATE CODE	MACRO 12.5-46.0 21:52  2-MAR-81 PAGE 11
RDATE.MAC	19-JUN-78 15:28	

   579	000606'	606000	000004	00010	DATNM1:	TRNN FL,FNEED1
   580	000607'	254000	000167'	00020		JRST ILLDAT
   581	000610'	202300	000556*	00030		MOVEM CODE,DAY	;STARTS WITH OTHER
   582	000611'	260740	000000'	00040		PUSHJ P,ITMSCN
   583	000612'	402000	000604*	00050		SETZM MONTH
   584	000613'	306340	000016	00060		CAIN ITEM,ITMDAY
   585				00070		JRST	[PUSHJ P,ITMSCN
   586	000614'	254000	002144'	00080			JRST DTCMII]	;LIKE 2 DAYS
   587	000615'	306340	000004	00090		CAIN ITEM,ITMDOW
   588				00100		JRST	[MOVEM CODE,YEAR	;OTHER WED (LINE 2 WED)
   589				00110			PUSHJ P,ITMSCN
   590	000616'	254000	002146'	00120			JRST DCMIII]
   591	000617'	302340	000015	00130		CAIE ITEM,ITMMON
   592	000620'	254000	000167'	00140		JRST ILLDAT
   593	000621'	201040	000001	00150	DATDY3:	MOVEI T1,1	;EVERY OTHER MONTH
   594	000622'	250040	000610*	00160		EXCH T1,DAY
   595	000623'	202040	001751'	00170		MOVEM T1,N1
   596	000624'	254000	000361'	00180		JRST CODE5S
   597
   598	000625'	606000	000004	00200	DATNM2:	TRNN FL,FNEED1
   599	000626'	254000	000167'	00210		JRST ILLDAT
   600	000627'	402000	000612*	00220		SETZM MONTH	;LAST SOMETHING
   601	000630'	260740	000000'	00230		PUSHJ P,ITMSCN
   602	000631'	302340	000004	00240		CAIE ITEM,ITMDOW
   603	000632'	254000	000645'	00250		JRST DATNM3
   604	000633'	202300	000565*	00260		MOVEM CODE,YEAR	;LAST WED
   605	000634'	260740	000000'	00270		PUSHJ P,ITMSCN
   606	000635'	260740	000506'	00280		PUSHJ P,DTSBII
   607	000636'	334000	000000	00290		 SKIPA
   608	000637'	254000	000167'	00300		JRST ILLDAT
   609	000640'	201040	000004	00310	CODE4:	IDATE (4)^	MOVEI T1,4
   610	000641'	136040	000011			SDATE (T1)^	IDPB T1,DPTR
   611	000642'	361400	000214'			SOJL DCNT,DATLNG^^
   612	000643'	260740	000000'	00320		PUSHJ P,ITMSCN
   613	000644'	254000	000565'	00330		JRST CODE3C
   614
   615	000645'	302340	000016	00350	DATNM3:	CAIE ITEM,ITMDAY
   616	000646'	254000	000167'	00360		JRST ILLDAT
   617	000647'	606000	000004	00370	DATEN1:	TRNN FL,FNEED1
   618	000650'	254000	000167'	00380		JRST ILLDAT
   619	000651'	402000	000627*	00390		SETZM MONTH
   620	000652'	260740	000000'	00400		PUSHJ P,ITMSCN	;LAST DAY
   621	000653'	260740	000506'	00410		PUSHJ P,DTSBII
   622	000654'	334000	000000	00420		 SKIPA
   623	000655'	254000	000167'	00430		JRST ILLDAT
   624	000656'	201040	000006	00440	CODE6:	IDATE (6)^	MOVEI T1,6
   625	000657'	136040	000011			SDATE (T1)^	IDPB T1,DPTR
   626	000660'	361400	000214'			SOJL DCNT,DATLNG^^
   627	000661'	260740	000000'	00450		PUSHJ P,ITMSCN
   628	000662'	254000	000374'	00460		JRST CODE5C
   629
   630	000663'	606000	000004	00480	DATDOW:	TRNN FL,FNEED1
   631	000664'	254000	000167'	00490		JRST ILLDAT
RDATE - MOST OF THE REMIND DATE CODE	MACRO 12.5-46.0 21:52  2-MAR-81 PAGE 11-2
RDATE.MAC	19-JUN-78 15:28	

   632	000665'	201040	000001	00500		MOVEI T1,1	;EVERY WED OF?
   633	000666'	562040	000622*	00510		HRROM T1,DAY	;OR WED AFTER
   634	000667'	254000	000530'	00520		JRST DTCMIV
   635
   636	000670'	201040	000010	00540	CODE8:	IDATE (^D8)^	MOVEI T1,^D8
   637	000671'	136040	000011			SDATE (T1)^	IDPB T1,DPTR
   638	000672'	361400	000214'			SOJL DCNT,DATLNG^^
   639	000673'	550040	000666*	00550	CODE8C:	HRRZ T1,DAY
   640	000674'	260740	000452'	00560		PUSHJ P,DEPNUM
   641	000675'	660000	000100	00570		TRO FL,FBEF
   642	000676'	254000	000136'	00580		JRST RDA0
   643
   644	000677'	201040	000012	00600	CODE10:	IDATE (^D10)^	MOVEI T1,^D10
   645	000700'	136040	000011			SDATE (T1)^	IDPB T1,DPTR
   646	000701'	361400	000214'			SOJL DCNT,DATLNG^^
   647	000702'	550040	000673*	00610	COD10C:	HRRZ T1,DAY
   648	000703'	260740	000452'	00620		PUSHJ P,DEPNUM
   649	000704'	200040	000633*	00630		MDATE (YEAR)^	MOVE T1,YEAR
   650	000705'	136040	000011			SDATE (T1)^	IDPB T1,DPTR
   651	000706'	361400	000214'			SOJL DCNT,DATLNG^^
   652	000707'	660000	000100	00640		TRO FL,FBEF
   653	000710'	254000	000136'	00650		JRST RDA0
   654
   655	000711'	201040	000007	00670	CODE7:	IDATE (7)^	MOVEI T1,7
   656	000712'	136040	000011			SDATE (T1)^	IDPB T1,DPTR
   657	000713'	361400	000214'			SOJL DCNT,DATLNG^^
   658	000714'	254000	000673'	00680		JRST CODE8C
   659
   660	000715'	201040	000011	00700	CODE9:	IDATE (^D9)^	MOVEI T1,^D9
   661	000716'	136040	000011			SDATE (T1)^	IDPB T1,DPTR
   662	000717'	361400	000214'			SOJL DCNT,DATLNG^^
   663	000720'	254000	000702'	00710		JRST COD10C
RDATE - MOST OF THE REMIND DATE CODE	MACRO 12.5-46.0 21:52  2-MAR-81 PAGE 12
RDATE.MAC	19-JUN-78 15:28	

   664	000721'	260740	000037'	00010	DTEST:	PUSHJ P,RDATE
   665	000722'	260740	000314*	00020		PUSHJ P,GENTDY
   666	000723'	202040	000000*	00030		MOVEM T1,MTARG	;SET TARGET DATE TO TODAY
   667	000724'	260740	000000*	00040	DTEST1:	PUSHJ P,GENDAT	;GENERATE A DATE
   668	000725'	254000	000740'	00050		 JRST NODAT	;NO MORE
   669	000726'	200040	000000*	00060		MOVE T1,FNDDAT	;GET THE ONE FOUND
   670	000727'	202040	000723*	00070		MOVEM T1,MTARG
   671	000730'	260740	000000*	00080		PUSHJ P,PRDAT	;PRINT IT
   672	000731'	350000	000727*	00090		AOS MTARG	;LOOK FOR NEXT ONE AFTER THAT
   673				00100		OUTSTR [ASCIZ /
   674	000732'	051140	002151'	00110	/]
   675	000733'	211040	000001	00120		MOVNI T1,1
   676	000734'	051300	000001	00130		GETLCH T1
   677	000735'	603040	000400	00140		TLNE T1,400	;SEE IF ^O IN EFFECT
   678	000736'	254000	000173*	00150		JRST CMD	;YES, DONE
   679	000737'	254000	000724'	00160		JRST DTEST1	;NO, GET NEXT
   680
   681				00180	NODAT:	OUTSTR [ASCIZ /
   682				00190	No more dates.
   683	000740'	051140	002152'	00200	/]
   684	000741'	254000	000736*	00210		JRST CMD
RDATE - MOST OF THE REMIND DATE CODE	MACRO 12.5-46.0 21:52  2-MAR-81 PAGE 13
RDATE.MAC	19-JUN-78 15:28	

   685	000742'	260740	000037'	00010	INSDAT:	PUSHJ P,RDATE	;READ A DATE
   686	000743'	402000	000000*	00020		SETZM DATTIM	;NO TIME YET
   687	000744'	051140	002156'	00030		OUTSTR [ASCIZ /Time range: /]
   688	000745'	260740	000040*	00040		PUSHJ P,SCANI
   689	000746'	260740	001051'	00050		PUSHJ P,GTIME	;GET TIME IN T2
   690	000747'	254000	000061*	00060		JRST NONUM
   691	000750'	254000	000761'	00070		JRST NOTIM
   692	000751'	202100	000743*	00080		MOVEM T2,DATTIM
   693	000752'	302640	000055	00090		CAIE CS,"-"
   694				00100		JRST [hrli t1,5(t2)	;alarm - make valid for 5 minutes
   695				00110			HLLM T1,DATTIM
   696	000753'	254000	002161'	00120			JRST NOTIM]
   697	000754'	260740	000103*	00130		PUSHJ P,SCAN
   698	000755'	260740	001051'	00140		PUSHJ P,GTIME	;GET ENDING TIME
   699	000756'	254000	000000*	00150		JRST NONUM0
   700				00160		JRST [movei t1,^d24*^d60
   701				00170			hrlm T1,DATTIM
   702	000757'	254000	002164'	00180			JRST NOTIM]
   703	000760'	506100	000751*	00190		HRLM T2,DATTIM
   704	000761'	051140	002167'	00200	NOTIM:	OUTSTR [ASCIZ /Days warning: /]
   705	000762'	402000	000000*	00210		SETZM DATWRN	;NONE YET
   706	000763'	260740	000745*	00220		PUSHJ P,SCANI
   707	000764'	603640	000041*	00230		TLNE CS,TERMF
   708	000765'	254000	000771'	00240		JRST NOWRN
   709	000766'	606000	000002	00250		TRNN FL,NUMF
   710	000767'	254000	000747*	00260		JRST NONUM
   711	000770'	202140	000762*	00270		MOVEM T3,DATWRN
   712	000771'	051140	002172'	00280	NOWRN:	OUTSTR [ASCIZ /Text: /]
   713	000772'	066040	000000	00290		INPUT TTY,0	;FORCE START OF LINE
   714	000773'	201040	000073	00300		MOVEI T1,^D59
   715	000774'	260740	000000*	00310		PUSHJ P,RDNAM
   716	000775'	200040	002174'	00320		MOVE T1,[XWD NAMBUF,DATTXT]
   717	000776'	251040	000013*	00330		BLT T1,DATTXT+^D11	;MOVE TO BUFFER
   718	000777'	476000	000000*	00340		SETOM DATCNC	;NOT CANCLED
RDATE - MOST OF THE REMIND DATE CODE	MACRO 12.5-46.0 21:52  2-MAR-81 PAGE 14
RDATE.MAC	19-JUN-78 15:28	

   719	001000'	260740	001002'	00100	DATINS:	PUSHJ P,INSDT1
   720	001001'	254000	000741*	00200		JRST CMD
   721
   722	001002'	260740	000063*	00400	INSDT1:	PUSHJ P,INIDAT	;FIND THE FIRST ONE
   723	001003'	254000	001011'	00500		 JRST NODLST	;NO DATE LIST AT ALL
   724	001004'	254000	001117'	00600		 JRST FNDMTY	;MIGHT BE A PLACE TO PUT IT, SPACE HERE
   725	001005'	260740	000072*	00700	LOKSPC:	PUSHJ P,NXTDAT	;NOT HERE, TRY NEXT
   726	001006'	254000	001020'	00800		 JRST DATNBK	;NO MORE DATES, PUT IN NEW BLOCK
   727	001007'	254000	001117'	00900		 JRST FNDMTY	;AND EMPTY SPOT
   728	001010'	254000	001005'	01000		JRST LOKSPC
   729
   730	001011'	260740	000000*	01200	NODLST:	PUSHJ P,REMGET	;GET A NEW BLOCK
   731	001012'	261740	000012	01300		PUSH P,BLK
   732	001013'	201500	000001	01400		MOVEI BLK,1
   733	001014'	260740	000000*	01500		PUSHJ P,RDBUF
   734	001015'	262753	000176*	01600		POP P,BUFDTA+176(BUF)	;STORE LINK
   735	001016'	260740	000000*	01700		PUSHJ P,WRTBUF
   736	001017'	254000	001000'	01800		JRST DATINS	;GO TRY AGAIN
   737
   738	001020'	261740	000012	02000	DATNBK:	PUSH P,BLK
   739	001021'	261753	000000*	02100		PUSH P,BUFBLK(BUF)
   740	001022'	205040	400000	02200		MOVSI T1,400000
   741	001023'	436053	001021*	02300		IORM T1,BUFBLK(BUF)
   742	001024'	260740	001011*	02400		PUSHJ P,REMGET	;GET A NEW BLOCK
   743	001025'	250517	777777	02500		EXCH BLK,-1(P)	;GET BACK OLD LAST BLOCK
   744	001026'	260740	001014*	02600		PUSHJ P,RDBUF
   745	001027'	262753	001023*	02700		POP P,BUFBLK(BUF)	;NOW UNLOCK IT
   746	001030'	200057	000000	02800		MOVE T1,(P)	;THE BLOCK WE GOT
   747	001031'	202053	000000*	02900		MOVEM T1,BUFDTA(BUF)	;LINK UP
   748	001032'	260740	001016*	03000		PUSHJ P,WRTBUF
   749	001033'	262740	000012	03100		POP P,BLK
   750	001034'	260740	001026*	03200		PUSHJ P,RDBUF	;NEW BLOCK NOW
   751	001035'	201653	000001*	03300		MOVEI CS,BUFDTA+1(BUF)	;PUT AT START
   752	001036'	505640	000107*	03400	SETDAT:	HRLI CS,DATCNT	;FROM HERE
   753	001037'	200100	000015	03500		MOVE T2,CS
   754	001040'	270100	001036*	03600		ADD T2,DATCNT	;AND SIZE
   755	001041'	200040	000015	03700		MOVE T1,CS
   756	001042'	251042	777777	03800		BLT T1,-1(T2)
   757	001043'	260740	001032*	03900		PUSHJ P,WRTBUF
   758	001044'	051140	002175'	04000		OUTSTR [ASCIZ /Date number /]
   759	001045'	200140	000075*	04100		MOVE T3,DATNMB
   760	001046'	260740	000000*	04200		PUSHJ P,OUTNUM
   761				04300		OUTSTR [ASCIZ /
   762	001047'	051140	002151'	04400	/]
   763	001050'	263740	000000	04500		POPJ P,		;DONE
   764
   765	001051'	603640	000764*	04700	GTIME:	TLNE CS,TERMF
   766	001052'	254000	001071'	04800		JRST GTS1
   767	001053'	606000	000002	04900		TRNN FL,NUMF
   768	001054'	254000	001073'	05000		jrst	gtrel	;maybe in relative format
   769	001055'	261740	000003	05100		PUSH P,T3
   770	001056'	260740	000754*	05200		PUSHJ P,SCAN
   771	001057'	302640	000072	05300		CAIE CS,":"	;IS IT LIKE 14:23
RDATE - MOST OF THE REMIND DATE CODE	MACRO 12.5-46.0 21:52  2-MAR-81 PAGE 14-2
RDATE.MAC	19-JUN-78 15:28	

   772				05400		JRST	[POP P,T2
   773				05500			IDIVI T2,^D100	;HOURS IN T2 MIN IN T3
   774	001060'	254000	002200'	05600			JRST COMTIM]
   775	001061'	260740	001056*	05700		PUSHJ P,SCAN	;YES, GET SECOND NUMBER
   776	001062'	606000	000002	05800		TRNN FL,NUMF
   777				05900		jrst	[pop	p,t2
   778	001063'	254000	002203'	05950			jrst	gtns]
   779	001064'	260740	001061*	06000		PUSHJ P,SCAN
   780	001065'	262740	000002	06100		POP P,T2
   781	001066'	221100	000074	06200	COMTIM:	IMULI T2,^D60	;CONVERT TO SECONDS
   782	001067'	270100	000003	06300		ADD T2,T3
   783	001070'	350017	000000	06400	gts0:	AOS (P)
   784	001071'	350017	000000	06500	GTS1:	AOS (P)
   785	001072'	263740	000000	06600	GTNS:	POPJ P,
   786
   787	001073'	302640	000052	06800	gtrel:	caie	cs,"*"
   788	001074'	254000	001072'	06900		jrst	gtns
   789	001075'	402000	001750'	07000		setzm	hours#
   790	001076'	260740	001064*	07100		pushj	p,scan
   791	001077'	606000	000002	07200		trnn	fl,numf
   792	001100'	254000	001104'	07300		jrst	gmin
   793	001101'	221140	000074	07400		imuli	t3,^d60
   794	001102'	202140	001750'	07500		movem	t3,hours
   795	001103'	260740	001076*	07600		pushj	p,scan
   796	001104'	302640	000072	07700	gmin:	caie	cs,":"
   797				07800		jrst	[setz	t3,
   798	001105'	254000	002205'	07900			jrst	gmin1]
   799	001106'	260740	001103*	08000		pushj	p,scan
   800	001107'	606000	000002	08100		trnn	fl,numf
   801	001110'	254000	001072'	08200		jrst	gtns
   802	001111'	200100	001750'	08300	gmin1:	move	t2,hours
   803	001112'	270100	000003	08400		add	t2,t3
   804	001113'	047140	000023	08500		mstime	t3,
   805	001114'	231140	165140	08600		idivi	t3,^d60000
   806	001115'	270100	000003	08700		add	t2,t3
   807	001116'	254000	001070'	08800		jrst	gts0
   808
   809	001117'	200100	001040*	09000	FNDMTY:	MOVE T2,DATCNT
   810	001120'	231100	000023	09100		IDIVI T2,^D19	;FIND NUMBER OF SLOTS NECESSARY
   811	001121'	363100	001036'	09200		SOJLE T2,SETDAT	;IF ONLY 1 WILL FIT
   812	001122'	564140	000015	09300		HLRO T3,CS	;SEE HOW MANY LEFT
   813	001123'	213000	000003	09400		MOVNS T3
   814	001124'	315140	000002	09500		CAMGE T3,T2
   815	001125'	254000	001005'	09600		JRST LOKSPC	;NOT ENOUGH LEFT IN THIS BLOCK
   816	001126'	200140	000015	09700		MOVE T3,CS	;ENOUGH IN BLOCK, ENOUGH EMPTY?
   817	001127'	271140	000023	09800	MTYSRC:	ADDI T3,^D19
   818	001130'	332003	000021	09900		SKIPE ^D17(T3)
   819	001131'	254000	001005'	10000		JRST LOKSPC	;NOT EMPTY, LOOK SOME MORE
   820	001132'	367100	001127'	10100		SOJG T2,MTYSRC	;FOUND ENOUGH EMPTY?
   821	001133'	254000	001036'	10200		JRST SETDAT	;YES, PUT IN DATE
RDATE - MOST OF THE REMIND DATE CODE	MACRO 12.5-46.0 21:52  2-MAR-81 PAGE 15
RDATE.MAC	19-JUN-78 15:28	

   822				00010	;PRINT OUT A PIECE OF DATE INFORMATION
   823
   824	001134'	620000	000040	00030	ONEDPR:	TRZ FL,FRDATE	;USE A A FLAG TO SAY NEED CRLF
   825	001135'	200440	000123*	00040		MOVE DPTR,SVDPTR
   826	001136'	134340	000011	00050	D1PRLP:	ILDB ITEM,DPTR
   827	001137'	302340	000000	00060		CAIE ITEM,0
   828	001140'	306340	000025	00070		CAIN ITEM,^D21
   829	001141'	334000	000000	00080		SKIPA
   830	001142'	260740	001334'	00090		PUSHJ P,COMCRL
   831	001143'	256007	001144'	00100		XCT PRTAB(ITEM)
   832
   833	001144'	254000	001221'	00120	PRTAB:	JRST DPRDOT	;0 END
   834	001145'	254000	001230'	00130		JRST DPRDOW	;1 EVEY WED
   835	001146'	254000	001223'	00140		JRST DPRDAY	;2 EVERY 5 DAYS
   836	001147'	254000	001271'	00150		JRST DPRMDW	;3 FIRST MONDAY IN JUNE
   837	001150'	254000	001301'	00160		JRST DPRLDW	;4 LAST MONDAY IN JUNE
   838	001151'	254000	001234'	00170		JRST DPRMDY	;5 JUNE 25TH
   839	001152'	254000	001263'	00180		JRST DPRLDY	;6 END OF JUNE
   840	001153'	254000	001315'	00190		JRST DPRDBF	;7 2 DAYS BEFORE
   841	001154'	254000	001317'	00200		JRST DPRDAF	;8 2 DAYS AFTER
   842	001155'	254000	001326'	00210		JRST DPRWBF	;9 SECOND WED BEFORE
   843	001156'	254000	001331'	00220		JRST DPRWAF	;10 SECOND WED AFTER
   844	001157'	254000	001337'	00230		JRST DPROR	;11 OR
   845	001160'	254000	001341'	00240		JRST DPRREF	;12 REFRENCE
   846	001161'	254000	001343'	00250		JRST DPRSTR	;13 STARTING
   847	001162'	254000	001345'	00260		JRST DPRUNT	;14 UNTIL
   848	001163'	254000	001347'	00270		JRST DPRFRV	;15 UNTIL FOREVER
   849	001164'	254000	001351'	00280		JRST DPRXCP	;16 EXCEPT
   850	001165'	254000	001353'	00290		JRST DPRBET	;17 BETWEEN
   851	001166'	254000	001355'	00300		JRST DPRAND	;18 AND
   852	001167'	254000	001363'	00310		JRST DPRDAT	;19 A DATE
   853	001170'	254000	001357'	00320		JRST DPRLPR	;20 (
   854	001171'	254000	001361'	00330		JRST DPRRPR	;21 )
   855
   856	001172'	302300	000002	00350	DPRNM1:	CAIE CODE,2
   857	001173'	254000	001176'	00360		JRST DPRNUM
   858	001174'	051140	002207'	00370		OUTSTR [ASCIZ /other /]
   859	001175'	263740	000000	00380		POPJ P,
   860
   861	001176'	322300	000000*	00400	DPRNUM:	JUMPE CODE,CPOPJ
   862	001177'	200140	000006	00410		MOVE T3,CODE
   863	001200'	260740	001046*	00420		PUSHJ P,OUTNUM
   864	001201'	200040	000006	00430		MOVE T1,CODE
   865	001202'	231040	000144	00440		IDIVI T1,^D100
   866	001203'	200040	000002	00450		MOVE T1,T2	;TAKE REMINDER
   867	001204'	231040	000012	00460		IDIVI T1,^D10
   868	001205'	362040	001211'	00470		SOJE T1,PRTH
   869	001206'	362100	001213'	00480		SOJE T2,PRST
   870	001207'	362100	001215'	00490		SOJE T2,PRND
   871	001210'	362100	001217'	00500		SOJE T2,PRRD
   872	001211'	051140	002211'	00510	PRTH:	OUTSTR [ASCIZ /th /]
   873	001212'	263740	000000	00520		POPJ P,
   874
RDATE - MOST OF THE REMIND DATE CODE	MACRO 12.5-46.0 21:52  2-MAR-81 PAGE 15-2
RDATE.MAC	19-JUN-78 15:28	

   875	001213'	051140	002212'	00540	PRST:	OUTSTR [ASCIZ /st /]
   876	001214'	263740	000000	00550		POPJ P,
   877
   878	001215'	051140	002213'	00570	PRND:	OUTSTR [ASCIZ /nd /]
   879	001216'	263740	000000	00580		POPJ P,
   880
   881	001217'	051140	002214'	00600	PRRD:	OUTSTR [ASCIZ /rd /]
   882	001220'	263740	000000	00610		POPJ P,
RDATE - MOST OF THE REMIND DATE CODE	MACRO 12.5-46.0 21:52  2-MAR-81 PAGE 16
RDATE.MAC	19-JUN-78 15:28	

   883				00010	DPRDOT:	OUTSTR [ASCIZ /.
   884	001221'	051140	002155'	00020	/]
   885	001222'	263740	000000	00030		POPJ P,
   886
   887	001223'	051140	002215'	00050	DPRDAY:	OUTSTR [ASCIZ /every /]
   888	001224'	260740	001250'	00060		PUSHJ P,GETNM1
   889	001225'	051140	002217'	00070		OUTSTR [ASCIZ /day/]
   890	001226'	660000	000040	00080	D2PRLP:	TRO FL,FRDATE
   891	001227'	254000	001136'	00090		JRST D1PRLP
   892
   893	001230'	051140	002215'	00110	DPRDOW:	OUTSTR [ASCIZ /every /]
   894	001231'	260740	001250'	00120		PUSHJ P,GETNM1
   895	001232'	260740	001254'	00130		PUSHJ P,WKDPR
   896	001233'	254000	001226'	00140		JRST D2PRLP
   897
   898	001234'	260740	001257'	00160	DPRMDY:	PUSHJ P,EVOTHE
   899	001235'	134140	000011	00170		ILDB T3,DPTR
   900	001236'	322140	001244'	00180		JUMPE T3,DPMDY2	;EVERY N MONTHS
   901				00190		JUMPE CODE,[OUTSTR [ASCIZ /day in /]
   902	001237'	322300	002222'	00200			JRST .+2]
   903	001240'	051140	002224'	00210		OUTSTR [ASCIZ /of /]
   904	001241'	270140	002225'	00220	DPMDY4:	ADD T3,[XWD MDWDLN,MONPTR-1]
   905	001242'	260740	000000*	00230		PUSHJ P,OUTSIX
   906	001243'	254000	001226'	00240		JRST D2PRLP
   907
   908	001244'	051140	002226'	00260	DPMDY2:	OUTSTR [ASCIZ /day of every /]
   909	001245'	260740	001250'	00270	DPMDY3:	PUSHJ P,GETNM1
   910	001246'	051140	002231'	00280		OUTSTR [ASCIZ /month/]
   911	001247'	254000	001226'	00290		JRST D2PRLP
   912
   913	001250'	260740	000000*	00310	GETNM1:	PUSHJ P,GETNUM
   914	001251'	302300	000001	00320		CAIE CODE,1
   915	001252'	254000	001172'	00330		JRST DPRNM1
   916	001253'	263740	000000	00340		POPJ P,
   917
   918	001254'	134140	000011	00360	WKDPR:	ILDB T3,DPTR
   919	001255'	270140	002233'	00370		ADD T3,[XWD MDWDLN,WKDPTR]
   920	001256'	254000	001242*	00380		JRST OUTSIX
   921
   922	001257'	134300	000011	00400	EVOTHE:	ILDB CODE,DPTR
   923				00410		JUMPE CODE,[OUTSTR [ASCIZ /every /]
   924	001260'	322300	002234'	00420			POPJ P,]
   925	001261'	051140	002236'	00430		OUTSTR [ASCIZ /the /]
   926	001262'	254000	001176'	00440		JRST DPRNUM
RDATE - MOST OF THE REMIND DATE CODE	MACRO 12.5-46.0 21:52  2-MAR-81 PAGE 17
RDATE.MAC	19-JUN-78 15:28	

   927	001263'	051140	002237'	00010	DPRLDY:	OUTSTR [ASCIZ /the end of /]
   928	001264'	134140	000011	00020		ILDB T3,DPTR
   929	001265'	322140	001267'	00030		JUMPE T3,DPLDY1
   930	001266'	254000	001241'	00040		JRST DPMDY4
   931
   932	001267'	051140	002215'	00060	DPLDY1:	OUTSTR [ASCIZ /every /]
   933	001270'	254000	001245'	00070		JRST DPMDY3
   934
   935	001271'	260740	001257'	00090	DPRMDW:	PUSHJ P,EVOTHE
   936	001272'	260740	001254'	00100		PUSHJ P,WKDPR
   937	001273'	134140	000011	00110		ILDB T3,DPTR
   938	001274'	326140	001277'	00120		JUMPN T3,DPMDW2
   939	001275'	051140	002242'	00130	DPLDW1:	OUTSTR [ASCIZ / of every /]
   940	001276'	254000	001245'	00140		JRST DPMDY3
   941
   942	001277'	051140	002245'	00160	DPMDW2:	OUTSTR [ASCIZ / in /]
   943	001300'	254000	001241'	00170		JRST DPMDY4
   944
   945	001301'	051140	002246'	00190	DPRLDW:	OUTSTR [ASCIZ /the last /]
   946	001302'	260740	001254'	00200		PUSHJ P,WKDPR
   947	001303'	134140	000011	00210		ILDB T3,DPTR
   948	001304'	322140	001275'	00220		JUMPE T3,DPLDW1
   949	001305'	254000	001277'	00230		JRST DPMDW2
RDATE - MOST OF THE REMIND DATE CODE	MACRO 12.5-46.0 21:52  2-MAR-81 PAGE 18
RDATE.MAC	19-JUN-78 15:28	

   950	001306'	260740	001250*	00010	DBAFCM:	PUSHJ P,GETNUM
   951	001307'	306300	000001	00020		CAIN CODE,1
   952				00030		JRST	[OUTSTR [ASCIZ/the day /]
   953	001310'	254000	002252'	00040			POPJ P,]
   954	001311'	200140	000006	00050		MOVE T3,CODE
   955	001312'	260740	001200*	00060		PUSHJ P,OUTNUM
   956	001313'	051140	002254'	00070		OUTSTR [ASCIZ / days/]
   957	001314'	263740	000000	00080		POPJ P,
   958
   959	001315'	260740	001306'	00100	DPRDBF:	PUSHJ P,DBAFCM
   960	001316'	254000	001327'	00110		JRST DPRBFC
   961
   962	001317'	260740	001306'	00130	DPRDAF:	PUSHJ P,DBAFCM
   963	001320'	254000	001332'	00140		JRST DPRAFC
   964
   965	001321'	051140	002236'	00160	WABFCM:	OUTSTR [ASCIZ /the /]
   966	001322'	260740	001306*	00170		PUSHJ P,GETNUM
   967	001323'	302300	000001	00180		CAIE CODE,1
   968	001324'	260740	001176'	00190		PUSHJ P,DPRNUM
   969	001325'	254000	001254'	00200		JRST WKDPR
   970
   971	001326'	260740	001321'	00220	DPRWBF:	PUSHJ P,WABFCM
   972	001327'	051140	002256'	00230	DPRBFC:	OUTSTR [ASCIZ / before /]
   973	001330'	254000	001136'	00240		JRST D1PRLP
   974
   975	001331'	260740	001321'	00260	DPRWAF:	PUSHJ P,WABFCM
   976	001332'	051140	002260'	00270	DPRAFC:	OUTSTR [ASCIZ / after /]
   977	001333'	254000	001136'	00280		JRST D1PRLP
RDATE - MOST OF THE REMIND DATE CODE	MACRO 12.5-46.0 21:52  2-MAR-81 PAGE 19
RDATE.MAC	19-JUN-78 15:28	

   978	001334'	622000	000040	00010	COMCRL:	TRZE FL,FRDATE
   979				00020		OUTSTR [ASCIZ /
   980	001335'	051140	002151'	00030	/]
   981	001336'	263740	000000	00040		POPJ P,
   982
   983	001337'	051140	002262'	00060	DPROR:	OUTSTR [ASCIZ /or /]
   984	001340'	254000	001136'	00070		JRST D1PRLP
   985
   986	001341'	051140	002263'	00090	DPRREF:	OUTSTR [ASCIZ /using as reference /]
   987	001342'	254000	001136'	00100		JRST D1PRLP
   988
   989	001343'	051140	002267'	00120	DPRSTR:	OUTSTR [ASCIZ /starting /]
   990	001344'	254000	001136'	00130		JRST D1PRLP
   991
   992	001345'	051140	002271'	00150	DPRUNT:	OUTSTR [ASCIZ /until /]
   993	001346'	254000	001136'	00160		JRST D1PRLP
   994
   995				00180	DPRFRV:	OUTSTR [ASCIZ /until forever
   996	001347'	051140	002273'	00190	/]
   997	001350'	254000	001136'	00200		JRST D1PRLP
   998
   999	001351'	051140	002277'	00220	DPRXCP:	OUTSTR [ASCIZ /except /]
  1000	001352'	254000	001136'	00230		JRST D1PRLP
  1001
  1002	001353'	051140	002301'	00250	DPRBET:	OUTSTR [ASCIZ /between /]
  1003	001354'	254000	001136'	00260		JRST D1PRLP
  1004
  1005	001355'	051140	002303'	00280	DPRAND:	OUTSTR [ASCIZ /and /]
  1006	001356'	254000	001136'	00290		JRST D1PRLP
  1007
  1008	001357'	051140	002304'	00310	DPRLPR:	OUTSTR [ASCIZ /(/]
  1009	001360'	254000	001136'	00320		JRST D1PRLP
  1010
  1011	001361'	051140	002305'	00340	DPRRPR:	OUTSTR [ASCIZ /)/]
  1012	001362'	254000	001136'	00350		JRST D1PRLP
  1013
  1014	001363'	260740	001322*	00370	DPRDAT:	PUSHJ P,GETNUM
  1015	001364'	200040	000006	00380		MOVE T1,CODE
  1016	001365'	260740	000000*	00390		PUSHJ P,PRDAT1
  1017	001366'	254000	001226'	00400		JRST D2PRLP
RDATE - MOST OF THE REMIND DATE CODE	MACRO 12.5-46.0 21:52  2-MAR-81 PAGE 20
RDATE.MAC	19-JUN-78 15:28	

  1018	001367'	260740	000037'	00010	DATDIS:	PUSHJ P,RDATE
  1019	001370'	260740	001134'	00020		PUSHJ P,ONEDPR
  1020	001371'	254000	001001*	00030		JRST CMD
  1021
  1022				00050	;LIST ALL DATES
  1023
  1024	001372'	201455	000021	00070	L1DATE:	MOVEI DPTR,^D17(CS)
  1025	001373'	505440	440500	00080		HRLI DPTR,(POINT 5,0)
  1026	001374'	202440	001135*	00090		MOVEM DPTR,SVDPTR
  1027	001375'	051140	002306'	00100		OUTSTR [ASCIZ /Date number: /]
  1028	001376'	200140	001045*	00110		MOVE T3,DATNMB
  1029	001377'	260740	001312*	00120		PUSHJ P,OUTNUM
  1030				00130		OUTSTR [ASCIZ /
  1031	001400'	051140	002151'	00140	/]
  1032	001401'	260740	001134'	00150		PUSHJ P,ONEDPR		;PRINT THE DATE
  1033	001402'	051140	002311'	00160		OUTSTR [ASCIZ /Entered: /]
  1034	001403'	200055	000001	00170		MOVE T1,1(CS)
  1035	001404'	260740	001365*	00180		PUSHJ P,PRDAT1
  1036				00190		OUTSTR [ASCIZ /
  1037	001405'	051140	002313'	00200	Time range: /]
  1038	001406'	336055	000003	00210		SKIPN T1,3(CS)
  1039	001407'	254000	001437'	00220		JRST NOTIMP
  1040	001410'	405040	777777	00230		ANDI T1,-1
  1041	001411'	231040	000074	00240		IDIVI T1,^D60
  1042	001412'	200140	000001	00250		MOVE T3,T1
  1043	001413'	305140	000012	00260		CAIGE T3,^D10
  1044	001414'	051700	000060	00270		OUTCHI "0"
  1045	001415'	260740	001377*	00280		PUSHJ P,OUTNUM
  1046	001416'	051700	000072	00290		OUTCHI ":"
  1047	001417'	200140	000002	00300		MOVE T3,T2
  1048	001420'	305140	000012	00310		CAIGE T3,^D10
  1049	001421'	051700	000060	00320		OUTCHI "0"
  1050	001422'	260740	001415*	00330		PUSHJ P,OUTNUM
  1051	001423'	051700	000055	00340		OUTCHI "-"
  1052	001424'	544055	000003	00350		HLR T1,3(CS)
  1053	001425'	231040	000074	00360		IDIVI T1,^D60
  1054	001426'	200140	000001	00370		MOVE T3,T1
  1055	001427'	305140	000012	00380		CAIGE T3,^D10
  1056	001430'	051700	000060	00390		OUTCHI "0"
  1057	001431'	260740	001422*	00400		PUSHJ P,OUTNUM
  1058	001432'	200140	000002	00410		MOVE T3,T2
  1059	001433'	051700	000072	00420		OUTCHI ":"
  1060	001434'	305140	000012	00430		CAIGE T3,^D10
  1061	001435'	051040	002316'	00440		OUTCHR ["0"]
  1062	001436'	260740	001431*	00450		PUSHJ P,OUTNUM
  1063				00460	NOTIMP:	OUTSTR [ASCIZ /
  1064	001437'	051140	002317'	00470	Days warning: /]
  1065	001440'	200155	000002	00480		MOVE T3,2(CS)
  1066	001441'	260740	001436*	00490		PUSHJ P,OUTNUM
  1067	001442'	337055	000004	00500		SKIPG T1,4(CS)
  1068	001443'	254000	001447'	00510		JRST NOCNC
  1069				00520		OUTSTR [ASCIZ /
  1070	001444'	051140	002323'	00530	Cancelled until /]
RDATE - MOST OF THE REMIND DATE CODE	MACRO 12.5-46.0 21:52  2-MAR-81 PAGE 20-2
RDATE.MAC	19-JUN-78 15:28	

  1071	001445'	260740	001404*	00540		PUSHJ P,PRDAT1
  1072	001446'	051700	000056	00550		OUTCHI "."
  1073				00560	NOCNC:	OUTSTR [ASCIZ /
  1074	001447'	051140	002327'	00570	Text: /]
  1075	001450'	051155	000005	00580		OUTSTR 5(CS)
  1076				00590		OUTSTR [ASCIZ /
  1077				00600	
  1078	001451'	051140	002331'	00610	/]
  1079	001452'	263740	000000	00620		POPJ P,
  1080
  1081	001453'	260740	001002*	00640	LADTS:	PUSHJ P,INIDAT
  1082	001454'	254000	001371*	00650		 JRST CMD	;RUN OUT
  1083	001455'	254000	001457'	00660		 JRST LADSKP	;NOT REALLY HERE
  1084	001456'	260740	001372'	00670	RELDAT:	PUSHJ P,L1DATE
  1085	001457'	260740	001005*	00680	LADSKP:	PUSHJ P,NXTDAT
  1086	001460'	254000	001454*	00690		 JRST CMD	;RUN OUT
  1087	001461'	254000	001457'	00700		 JRST LADSKP
  1088	001462'	254000	001456'	00710		JRST RELDAT	;REALLY FOUND ONE
RDATE - MOST OF THE REMIND DATE CODE	MACRO 12.5-46.0 21:52  2-MAR-81 PAGE 21
RDATE.MAC	19-JUN-78 15:28	

  1089	001463'	051140	002332'	00010	DELDAT:	OUTSTR [ASCIZ /Number: /]
  1090	001464'	260740	000763*	00020		PUSHJ P,SCANI
  1091	001465'	260740	000060'	00030		PUSHJ P,DATFND
  1092	001466'	260740	000000*	00040		PUSHJ P,DATDL1
  1093	001467'	254000	001460*	00050		JRST CMD
  1094
  1095	001470'	260740	000000*	00070	LPRTDY:	PUSHJ P,LSTTDY	;PRINT TODAY
  1096	001471'	255000	000000	00080		 JFCL		;NO NOTHING FOR OBSOLETE DATES
  1097	001472'	254000	001467*	00090		JRST CMD
  1098
  1099	001473'	260740	000037'	00110	LPRDAT:	PUSHJ P,RDATE	;GET A DATE
  1100	001474'	260740	000722*	00120		PUSHJ P,GENTDY
  1101	001475'	202040	000731*	00130		MOVEM T1,MTARG	;START WITH TODAY
  1102	001476'	260740	000724*	00140		PUSHJ P,GENDAT	;FIND ONE
  1103	001477'	254000	001503'	00150		 JRST LPRBDT	;NOT REALLY ONE THERE
  1104	001500'	260740	000000*	00160		PUSHJ P,LSTDAT	;GO LIST THAT ONE
  1105	001501'	255000	000000	00170		 JFCL		;DO NOTHING FOR OBSOLETE DATES
  1106	001502'	254000	001472*	00180		JRST CMD
  1107
  1108				00200	LPRBDT:	OUTSTR [ASCIZ /
  1109				00210	No such date.
  1110	001503'	051140	002334'	00220	/]
  1111	001504'	254000	001502*	00230		JRST CMD
  1112
  1113	001505'	051140	002332'	00250	DATCNL:	OUTSTR [ASCIZ /Number: /]
  1114	001506'	260740	001464*	00260		PUSHJ P,SCANI
  1115	001507'	260740	000060'	00270		PUSHJ P,DATFND
  1116	001510'	200055	000001	00280		MOVE T1,1(CS)
  1117	001511'	202040	000131*	00290		MOVEM T1,DATREF
  1118	001512'	201455	000021	00300		MOVEI DPTR,^D17(CS)
  1119	001513'	505440	440500	00310		HRLI DPTR,(POINT 5,0)
  1120	001514'	202440	001374*	00320		MOVEM DPTR,SVDPTR
  1121	001515'	260740	001474*	00330		PUSHJ P,GENTDY
  1122	001516'	202040	001475*	00340		MOVEM T1,MTARG
  1123	001517'	260740	001476*	00350		PUSHJ P,GENDAT
  1124	001520'	254000	001504*	00360		 JRST CMD
  1125	001521'	271040	000001	00370		ADDI T1,1
  1126	001522'	202055	000004	00380		MOVEM T1,4(CS)
  1127	001523'	260740	001043*	00390		PUSHJ P,WRTBUF
  1128	001524'	254000	001520*	00400		JRST CMD
  1129
  1130	001525'	051140	002332'	00420	DATUNC:	OUTSTR [ASCIZ /Number: /]
  1131	001526'	260740	001506*	00430		PUSHJ P,SCANI
  1132	001527'	260740	000060'	00440		PUSHJ P,DATFND
  1133	001530'	476015	000004	00450		SETOM 4(CS)
  1134	001531'	260740	001523*	00460		PUSHJ P,WRTBUF
  1135	001532'	254000	001524*	00470		JRST CMD
  1136
  1137	001533'	051140	002332'	00490	LIDAT:	OUTSTR [ASCIZ /Number: /]
  1138	001534'	260740	001526*	00500		PUSHJ P,SCANI
  1139	001535'	260740	000060'	00510		PUSHJ P,DATFND
  1140	001536'	260740	001372'	00520		PUSHJ P,L1DATE
  1141	001537'	254000	001532*	00530		JRST CMD
RDATE - MOST OF THE REMIND DATE CODE	MACRO 12.5-46.0 21:52  2-MAR-81 PAGE 22
RDATE.MAC	19-JUN-78 15:28	

  1142	001540'	051140	002332'	00100	CHGDAT:	OUTSTR [ASCIZ /Number: /]
  1143	001541'	260740	001534*	00200		PUSHJ P,SCANI
  1144	001542'	260740	000060'	00300		PUSHJ P,DATFND
  1145	001543'	202640	001745'	00400		MOVEM CS,CSAVE#	;SAVE POINTER TO DATE
  1146	001544'	051140	002340'	00500		OUTSTR [ASCIZ /Change date also? /]
  1147	001545'	260740	001541*	00600		PUSHJ P,SCANI
  1148	001546'	200040	002344'	00700		MOVE T1,[XWD -1,YESTBL]
  1149	001547'	260740	000005*	00800		PUSHJ P,NMSC	;SEE IF ITS YES
  1150	001550'	254000	001572'	00900		 JRST NOCDT	;NO
  1151	001551'	261740	001376*	01000		PUSH P,DATNMB	;SAVE THIS NUMBER
  1152	001552'	260740	000037'	01100		PUSHJ P,RDATE	;READ A DATE
  1153	001553'	262740	000003	01200		POP P,T3
  1154	001554'	260740	000062'	01300		PUSHJ P,DATFN1	;GO FIND THE DATE AGAIN
  1155	001555'	202640	001745'	01400		MOVEM CS,CSAVE
  1156	001556'	200055	000000	01500		MOVE T1,(CS)	;GET COUNT FOR CURRENT DATE
  1157	001557'	316040	001117*	01600		CAMN T1,DATCNT	;IS IT SAME?
  1158	001560'	254000	001654'	01700		JRST REPDAT	;YES, JUST REPLACE DATE
  1159	001561'	311040	001557*	01800		CAML T1,DATCNT	;IS NEW ONE LARGER?
  1160	001562'	254000	001656'	01900		JRST SMLDAT	;NO, SMALLER, REPLACE
  1161	001563'	505055	000002	02000		HRLI T1,2(CS)	;SAVE DATE INFO
  1162	001564'	541040	000770*	02100		HRRI T1,DATWRN
  1163	001565'	251040	000020*	02200		BLT T1,DATCNT+^D16	;MOVE OVER THE TEXT ETC.
  1164	001566'	260740	001466*	02300		PUSHJ P,DATDL1	;DELETE OLD ONE
  1165	001567'	051140	002345'	02400		OUTSTR [ASCIZ /new /]
  1166	001570'	260740	001002'	02500		PUSHJ P,INSDT1	;AND REINSERT
  1167	001571'	202640	001745'	02600		MOVEM CS,CSAVE
  1168	001572'	051140	002156'	02700	NOCDT:	OUTSTR [ASCIZ /Time range: /]
  1169	001573'	260740	001545*	02800		PUSHJ P,SCANI
  1170	001574'	603640	001051*	02900		TLNE CS,TERMF
  1171	001575'	254000	001614'	03000		JRST NOCTM	;DO NOT CHANGE TIME
  1172	001576'	260740	001051'	03100		PUSHJ P,GTIME
  1173	001577'	254000	000767*	03200		JRST NONUM
  1174	001600'	254000	001614'	03300		JRST NOCTM
  1175	001601'	202100	001746'	03400		movem T2,DATSAV#
  1176	001602'	302640	000055	03500		CAIE CS,"-"
  1177				03600		JRST [hrli t2,5(t2)
  1178				03700			MOVE CS,CSAVE
  1179				03800			MOVEM T2,3(CS)
  1180	001603'	254000	002346'	03900			JRST NOCTM]
  1181	001604'	260740	001106*	04000		PUSHJ P,SCAN
  1182	001605'	260740	001051'	04100		PUSHJ P,GTIME
  1183	001606'	254000	001577*	04200		JRST NONUM
  1184				04300		JRST [hrli t2,^d24*^d60
  1185				04400			hrr t2,datsav
  1186				04500			MOVE CS,CSAVE
  1187				04600			MOVEM T2,3(CS)
  1188	001607'	254000	002352'	04700			JRST NOCTM]
  1189	001610'	200640	001745'	04800		MOVE CS,CSAVE
  1190	001611'	504100	000002	04850		hrl	t2,t2
  1191	001612'	540100	001746'	04900		HRR T2,DATSAV
  1192	001613'	202115	000003	05000		MOVEM T2,3(CS)
  1193	001614'	051140	002167'	05100	NOCTM:	OUTSTR [ASCIZ /Days warning: /]
  1194	001615'	260740	001573*	05200		PUSHJ P,SCANI
RDATE - MOST OF THE REMIND DATE CODE	MACRO 12.5-46.0 21:52  2-MAR-81 PAGE 22-2
RDATE.MAC	19-JUN-78 15:28	

  1195	001616'	603640	001574*	05300		TLNE CS,TERMF
  1196	001617'	254000	001624'	05400		JRST NOCWRN
  1197	001620'	606000	000002	05500		TRNN FL,NUMF
  1198	001621'	254000	001606*	05600		JRST NONUM
  1199	001622'	200640	001745'	05700		MOVE CS,CSAVE
  1200	001623'	202155	000002	05800		MOVEM T3,2(CS)
  1201	001624'	051140	002172'	05900	NOCWRN:	OUTSTR [ASCIZ /Text: /]
  1202	001625'	066040	000000	06000		INPUT TTY,0
  1203	001626'	201040	000073	06100		MOVEI T1,^D59
  1204	001627'	260740	000774*	06200		PUSHJ P,RDNAM
  1205	001630'	336000	000000*	06300		SKIPN NAMBUF
  1206	001631'	254000	001637'	06400		JRST NOCTXT
  1207	001632'	200640	001745'	06500		MOVE CS,CSAVE
  1208	001633'	201055	000005	06600		MOVEI T1,5(CS)
  1209	001634'	505040	001630*	06700		HRLI T1,NAMBUF
  1210	001635'	200100	000001	06800		MOVE T2,T1
  1211	001636'	251042	000013	06900		BLT T1,^D11(T2)
  1212	001637'	200640	001745'	07000	noctxt:	move	cs,csave
  1213	001640'	201040	000001	07010		movei	t1,1
  1214	001641'	412055	000005	07100		andcam	t1,5(cs)
  1215	001642'	260740	001531*	07200		PUSHJ P,WRTBUF
  1216	001643'	254000	001537*	07300		JRST CMD
RDATE - MOST OF THE REMIND DATE CODE	MACRO 12.5-46.0 21:52  2-MAR-81 PAGE 23
RDATE.MAC	19-JUN-78 15:28	

  1217	001644'	200040	000130*	00010	REPDT1:	MOVE T1,ORGREF
  1218	001645'	202055	000001	00020		MOVEM T1,1(CS)	;REPLACE DATE
  1219	001646'	201055	000021	00030		MOVEI T1,^D17(CS)
  1220	001647'	505040	000170*	00040		HRLI T1,DATBUF
  1221	001650'	200100	000015	00050		MOVE T2,CS
  1222	001651'	270100	001561*	00060		ADD T2,DATCNT
  1223	001652'	251042	777777	00070		BLT T1,-1(T2)	;MOVE IN DATE
  1224	001653'	263740	000000	00080		POPJ P,
  1225
  1226	001654'	260740	001644'	00100	REPDAT:	PUSHJ P,REPDT1
  1227	001655'	254000	001572'	00110		JRST NOCDT	;JUST REPLACE A DATE
  1228
  1229	001656'	260740	001644'	00130	SMLDAT:	PUSHJ P,REPDT1	;REPLACE DATE WITH SMALLER
  1230	001657'	550040	000015	00140		HRRZ T1,CS
  1231	001660'	270040	001651*	00150		ADD T1,DATCNT
  1232	001661'	200100	001660*	00160		MOVE T2,DATCNT	;REPLACE OLD COUNT WITH NEW
  1233	001662'	250115	000000	00170		EXCH T2,(CS)
  1234	001663'	274100	001661*	00180		SUB T2,DATCNT	;HOW MUCH SMALLER
  1235	001664'	231100	000023	00190		IDIVI T2,^D19
  1236	001665'	201140	000023	00200		MOVEI T3,^D19
  1237	001666'	202141	000000	00210	SMLDT1:	MOVEM T3,(T1)
  1238	001667'	402001	000021	00220		SETZM ^D17(T1)
  1239	001670'	271040	000023	00230		ADDI T1,^D19
  1240	001671'	367100	001666'	00240		SOJG T2,SMLDT1	;ZERO OUT EXTRA
  1241	001672'	254000	001572'	00250		JRST NOCDT
  1242
  1243	001673'	714563	000000	00270	YESTBL:	SIXBIT /YES/
  1244	001674'	000000	000000	00280		0
  1245	001675'	000000	000000	00290		0
  1246
  1247	001676'	260740	001515*	00310	DATNXT:	PUSHJ P,GENTDY
  1248	001677'	202040	001754'	00320		MOVEM T1,SRCDAT#
  1249	001700'	620000	000004	00330		TRZ FL,FNEED1	;NONE FOUND YET
  1250	001701'	260740	001453*	00340		PUSHJ P,INIDAT
  1251	001702'	254000	001643*	00350		 JRST CMD	;NO DATES AT ALL
  1252	001703'	254000	001725'	00360		 JRST NXTSKP
  1253	001704'	200040	001754'	00370	NXTCHK:	MOVE T1,SRCDAT
  1254	001705'	315055	000004	00380		CAMGE T1,4(CS)	;SEE IF CANCEL DATE LARGER
  1255	001706'	200055	000004	00390		MOVE T1,4(CS)	;YES, USE IT
  1256	001707'	202040	001516*	00400		MOVEM T1,MTARG
  1257	001710'	200055	000001	00410		MOVE T1,1(CS)
  1258	001711'	202040	001511*	00420		MOVEM T1,DATREF
  1259	001712'	201455	000021	00430		MOVEI DPTR,^D17(CS)
  1260	001713'	505440	440500	00440		HRLI DPTR,(POINT 5,0)
  1261	001714'	202440	001514*	00450		MOVEM DPTR,SVDPTR
  1262	001715'	260740	001517*	00460		PUSHJ P,GENDAT
  1263	001716'	254000	001725'	00470		 JRST NXTSKP	;NO DATE THERE
  1264	001717'	274055	000002	00480		SUB T1,2(CS)	;SUBTRACT WARNING
  1265	001720'	317040	001754'	00490		CAMG T1,SRCDAT
  1266	001721'	254000	001731'	00500		JRST NXTTDY	;NEXT IS TODAY
  1267	001722'	662000	000004	00510		TROE FL,FNEED1
  1268	001723'	315040	001753'	00520		CAMGE T1,SAVNXT#
  1269	001724'	202040	001753'	00530		MOVEM T1,SAVNXT	;SAVE NEXT DATE
RDATE - MOST OF THE REMIND DATE CODE	MACRO 12.5-46.0 21:52  2-MAR-81 PAGE 23-2
RDATE.MAC	19-JUN-78 15:28	

  1270	001725'	260740	001457*	00540	NXTSKP:	PUSHJ P,NXTDAT
  1271	001726'	254000	001733'	00550		 JRST DONXT	;DO IT NOW, OUT OF DATES
  1272	001727'	254000	001725'	00560		 JRST NXTSKP
  1273	001730'	254000	001704'	00570		JRST NXTCHK
  1274
  1275	001731'	200040	001754'	00590	NXTTDY:	MOVE T1,SRCDAT
  1276	001732'	254000	001736'	00600		JRST NXTCOM	;GO TO COMMON CODE
  1277
  1278	001733'	606000	000004	00620	DONXT:	TRNN FL,FNEED1
  1279	001734'	254000	001702*	00630		JRST CMD	;NONE FOUND
  1280	001735'	200040	001753'	00640		MOVE T1,SAVNXT
  1281	001736'	261740	000001	00650	NXTCOM:	PUSH P,T1
  1282	001737'	260740	000730*	00660		PUSHJ P,PRDAT
  1283				00670		OUTSTR [ASCIZ /
  1284	001740'	051140	002151'	00680	/]
  1285	001741'	262740	000001	00690		POP P,T1
  1286	001742'	260740	001500*	00700		PUSHJ P,LSTDAT
  1287	001743'	255000	000000	00710		 JFCL
  1288	001744'	254000	001734*	00720		JRST CMD
  1289
  1290				00740		END
  1291
NO ERRORS DETECTED
PROGRAM BREAK IS 002357
4K CORE USED
RDATE - MOST OF THE REMIND DATE CODE	MACRO 12.5-46.0 21:52  2-MAR-81 PAGE 24
RDATE.MAC	19-JUN-78 15:28		SYMBOL TABLE

BIGDOM		000407'		DATFN1		000062'		DPRDBF		001315'		GTS0		001070'	
BLK		000012		DATFND		000060'		DPRDOT		001221'		GTS1		001071'	
BUF		000013		DATINS		001000'		DPRDOW		001230'		HOURS		001750'	
BUFBLK		001027'	EXT	DATLNG		000214'		DPRFRV		001347'		IDF		000001	SPD
BUFDTA		001031'	EXT	DATLPR		000246'		DPRLDW		001301'		ILLBET		000347'	
C		000014		DATMNM		000424'		DPRLDY		001263'		ILLDAT		000167'	
CHGDAT		001540'	INT	DATMNU		000435'		DPRLPR		001357'		ILLDCM		000170'	
CIRC		000400	SPD	DATMON		000353'		DPRMDW		001271'		ILLEXC		000324'	
CMD		001744'	EXT	DATNBK		001020'		DPRMDY		001234'		ILLLPR		000274'	
COD10C		000702'		DATNM1		000606'		DPRNM1		001172'		ILLNAN		000351'	
CODE		000006		DATNM2		000625'		DPRNUM		001176'		ILLOR		000212'	
CODE1		000541'		DATNM3		000645'		DPROR		001337'		ILLREF		000233'	
CODE10		000677'		DATNMB		001551'	EXT	DPRREF		001341'		ILLRPR		000276'	
CODE2		000416'		DATNUM		000464'		DPRRPR		001361'		ILLUMP		000300'	
CODE3		000553'		DATNXT		001676'	INT	DPRSTR		001343'		INIDAT		001701'	EXT
CODE3B		000563'		DATOR		000204'		DPRUNT		001345'		INSDAT		000742'	INT
CODE3C		000565'		DATREF		001711'	EXT	DPRWAF		001331'		INSDT1		001002'	INT
CODE3S		000552'		DATRFN		000216'		DPRWBF		001326'		ITEM		000007	
CODE4		000640'		DATRPR		000266'		DPRXCP		001351'		ITMAFT		000020	SIN
CODE5		000362'		DATSAV		001746'		DPTR		000011		ITMAND		000014	SIN
CODE5B		000372'		DATSIZ		000156	SPD	DSPIND		200000	SPD	ITMBEF		000017	SIN
CODE5C		000374'		DATTDY		000302'		DTCMI		000436'		ITMBET		000013	SIN
CODE5S		000361'		DATTIM		002165'	EXT	DTCMII		000503'		ITMDAY		000016	SIN
CODE6		000656'		DATTMR		000314'		DTCMIV		000530'		ITMDOT		000003	SIN
CODE7		000711'		DATTXT		002174'	EXT	DTCMV		000475'		ITMDOW		000004	SIN
CODE8		000670'		DATUNC		001525'	INT	DTEST		000721'	INT	ITMEND		000021	SIN
CODE8C		000673'		DATUNT		000235'		DTEST1		000724'		ITMEXC		000012	SIN
CODE9		000715'		DATWRN		001564'	EXT	DTSBII		000506'		ITMFRV		000011	SIN
COMBUF		000111'		DATYST		000312'		DWDLN3		000012'	EXT	ITMLPR		000022	SPD
COMCRL		001334'		DAY		000702'	EXT	DWDTB		001755'	EXT	ITMMN		000005	SIN
COMTIM		001066'		DBAFCM		001306'		EVOTHE		001257'		ITMMON		000015	SIN
CPOPJ		001176'	EXT	DCMIII		000537'		FBEF		000100	SPD	ITMNM1		000001	SIN
CPOPJ1		000523'	EXT	DCNT		000010		FEXCPT		000010	SPD	ITMNM2		000002	SIN
CS		000015		DELDAT		001463'	INT	FILDAT		000103'		ITMNMB		000025'	
CSAVE		001745'		DEPFIN		000461'		FILDT1		000067'		ITMNUM		000000	SIN
D1PRLP		001136'		DEPNUM		000452'	INT	FINDAT		000202'		ITMOR		000006	SIN
D2PRLP		001226'		DESDAT		001747'		FL		000000		ITMREF		000007	SIN
DATBET		000326'		DIPRS		400000	SPD	FNDDAT		000726'	EXT	ITMRPR		000023	SPD
DATBUF		001765'	EXT	DONXT		001733'		FNDMTY		001117'		ITMSC1		000001'	
DATCNC		000777'	EXT	DOWTBG		000600'		FNEED1		000004	SPD	ITMSCN		000000'	
DATCNL		001505'	INT	DPLDW1		001275'		FRDATE		000040	SPD	ITMSPC		000014'	
DATCNT		001663'	EXT	DPLDY1		001267'		FREF		000020	SPD	ITMTB		000140'	
DATCRF		000224'		DPMDW2		001277'		FREF2		000200	SPD	ITMTDY		000024	INT
DATDAY		000411'		DPMDY2		001244'		GENDAT		001715'	EXT	ITMTMR		000026	INT
DATDIS		001367'	INT	DPMDY3		001245'		GENTDY		001676'	EXT	ITMUNT		000010	SIN
DATDL1		001566'	EXT	DPMDY4		001241'		GETLCH	051300	000000		ITMYST		000025	INT
DATDOW		000663'		DPRAFC		001332'		GETNM1		001250'		KEPDAT		000054'	
DATDY1		000526'		DPRAND		001355'		GETNUM		001363'	EXT	L1DATE		001372'	
DATDY2		000602'		DPRBET		001353'		GMIN		001104'		LADSKP		001457'	
DATDY3		000621'		DPRBFC		001327'		GMIN1		001111'		LADTS		001453'	INT
DATEN1		000647'		DPRDAF		001317'		GTIME		001051'	INT	LIDAT		001533'	INT
DATEND		000174'		DPRDAT		001363'		GTNS		001072'		LOKSPC		001005'	
DATEXC		000316'		DPRDAY		001223'		GTREL		001073'		LPRBDT		001503'	
RDATE - MOST OF THE REMIND DATE CODE	MACRO 12.5-46.0 21:52  2-MAR-81 PAGE 24-2
RDATE.MAC	19-JUN-78 15:28		SYMBOL TABLE

LPRDAT		001473'	INT	PRTAB		001144'		
LPRTDY		001470'	INT	PRTH		001211'		
LSTDAT		001742'	EXT	RDA0		000136'		
LSTTDY		001470'	EXT	RDA1		000137'		
MAL		000003	SPD	RDATE		000037'		
MALHSH		000177	SPD	RDB0		000402'		
MDWDLN		000000	EXT	RDB1		000403'		
MONPTR		000000	EXT	RDBUF		001034'	EXT	
MONTH		002126'	EXT	RDNAM		001627'	EXT	
MSTIME	047000	000023		RDTTY		000120'		
MTARG		001707'	EXT	RELDAT		001456'		
MTYSRC		001127'		REM		000002	SPD	
N1		001751'		REMGET		001024'	EXT	
NAMBUF		001634'	EXT	REPDAT		001654'		
NMSC		001547'	EXT	REPDT1		001644'		
NOCDT		001572'		RPR1		000257'		
NOCNC		001447'		RSTERR		100000	SPD	
NOCTM		001614'		SAVNXT		001753'		
NOCTXT		001637'		SBII1		000515'		
NOCWRN		001624'		SBII2		000522'		
NODAT		000740'		SCAN		001604'	EXT	
NODLST		001011'		SCANI		001615'	EXT	
NONUM		001621'	EXT	SETDAT		001036'		
NONUM0		000756'	EXT	SETPRI		040000	SPD	
NOTIM		000761'		SMLDAT		001656'		
NOTIMP		001437'		SMLDT1		001666'		
NOWRN		000771'		SPCLEN		000003	SPD	
NSDT		000116'		SPCTBL		000031'		
NUMF		000002	SPD	SRCDAT		001754'		
NXTCHK		001704'		STPSCN		020000	SPD	
NXTCOM		001736'		SVDPTR		001714'	EXT	
NXTDAT		001725'	EXT	T1		000001		
NXTSKP		001725'		T2		000002		
NXTTDY		001731'		T3		000003		
ONEDPR		001134'		T4		000004		
ORGREF		001644'	EXT	T5		000005		
OUTCHI	051700	000000		TDYCOM		000303'		
OUTCHR	051040	000000		TERMF		001616'	EXT	
OUTNUM		001441'	EXT	TRYDAT		000075'		
OUTSIX		001256'	EXT	TTY		000001	SPD	
OUTSTR	051140	000000		WABFCM		001321'		
P		000017		WKDPR		001254'		
P2		000016		WKDPTR		002233'	EXT	
PDL		000000	EXT	WRTBUF		001642'	EXT	
PDL2		000000	EXT	YDCNV		000445'	EXT	
PDLSZ		000040	SPD	YEAR		002146'	EXT	
PDLSZ2		000020	SPD	YESTBL		001673'		
PLEVEL		001752'		
PRDAT		001737'	EXT	
PRDAT1		001445'	EXT	
PRND		001215'		

RDATE - MOST OF THE REMIND DATE CODE	MACRO 12.5-46.0 21:52  2-MAR-81
RDATE.MAC	19-JUN-78 15:28		Symbol cross reference

BIGDOM	   423	   438#
BLK	    13#	   731	   732	   738	   743	   749
BUF	    12#	   734	   739	   741	   745	   747	   751
BUFBLK	    87%	   739	   741	   745
BUFDTA	    87%	   734	   747	   751
C	    11#
CHGDAT	    93	  1142#
CIRC	    29#
CMD	    83%	   166	   203	   255	   678	   684	   720	  1020	  1082	  1086	  1093	  1097	  1106	  1111
	  1124	  1128	  1135	  1141	  1216	  1251	  1279	  1288
COD10C	   647#	   663
CODE	    17#	   109	   116	   119	   124	   272	   281	   297	   314	   319	   324	   341	   360	   373
	   386	   391	   411	   412	   413	   456	   464	   468	   490	   494	   510	   524	   529	   581
	   588	   604	   856	   861	   862	   864	   901	   914	   922	   923	   951	   954	   967	  1015
CODE1	   537#
CODE10	   532	   644#
CODE2	   447#	   506
CODE3	   548#
CODE3B	   554	   557#
CODE3C	   559#	   613
CODE3S	   536	   547#
CODE4	   609#
CODE5	   415#	   462	   467
CODE5B	   421	   424#
CODE5C	   426#	   628
CODE5S	   414#	   505	   596
CODE6	   624#
CODE7	   501	   655#
CODE8	   503	   636#
CODE8C	   639#	   658
CODE9	   534	   660#
COMBUF	   162	   194#
COMCRL	   830	   978#
COMTIM	   774	   781#
CPOPJ	    81%	   861
CPOPJ1	    81%	   523
CS	    10#	   100	   113	   149	   151	   190	   191	   192	   193	   693	   707	   751	   752	   753
	   755	   765	   771	   787	   796	   812	   816	  1024	  1034	  1038	  1052	  1065	  1067	  1075
	  1116	  1118	  1126	  1133	  1145	  1155	  1156	  1161	  1167	  1170	  1176	  1178	  1179	  1186
	  1187	  1189	  1192	  1195	  1199	  1200	  1207	  1208	  1212	  1214	  1218	  1219	  1221	  1230
	  1233	  1254	  1255	  1257	  1259	  1264
CSAVE	  1145#	  1145	  1155	  1167	  1178	  1186	  1189	  1199	  1207	  1212
D1PRLP	   826#	   891	   973	   977	   984	   987	   990	   993	   997	  1000	  1003	  1006	  1009	  1012
D2PRLP	   890#	   896	   906	   911	  1017
DATBET	   236	   382#
DATBUF	    76%	   154	   161	   194	   206	   208	   252	  1220
DATCNC	    79%	   718
DATCNL	    93	  1113#
DATCNT	    77%	   158	   192	   193	   752	   754	   809	  1157	  1159	  1163	  1222	  1231	  1232	  1234
DATCRF	   300#	   318
DATDAY	   239	   441#
DATDIS	    92	  1018#
DATDL1	    79%	  1092	  1164
RDATE - MOST OF THE REMIND DATE CODE	MACRO 12.5-46.0 21:52  2-MAR-81
RDATE.MAC	19-JUN-78 15:28		Symbol cross reference

DATDOW	   229	   630#
DATDY1	   497	   526#
DATDY2	   527	   575#
DATDY3	   578	   593#
DATEN1	   242	   617#
DATEND	   228	   268#
DATEXC	   235	   371#
DATFN1	   170#	  1154
DATFND	   168#	   189	  1091	  1115	  1132	  1139	  1144
DATINS	   719#	   736
DATLNG	   282	   290#	   298	   315	   325	   342	   361	   374	   387	   392	   417	   425	   428	   449
	   471	   483	   486	   539	   544	   550	   558	   561	   564	   568	   611	   626	   638	   646
	   651	   657	   662
DATLPR	   243	   321#
DATMNM	   230	   454#
DATMNU	   459	   464#
DATMON	   238	   408#
DATNBK	   726	   738#
DATNM1	   226	   579#
DATNM2	   227	   598#
DATNM3	   603	   615#
DATNMB	    77%	   175	   181	   759	  1028	  1151
DATNUM	   225	   488#
DATNXT	    93	  1247#
DATOR	   231	   279#
DATREF	    79%	   197	   215	  1117	  1258
DATRFN	   232	   294#
DATRPR	   244	   338#
DATSAV	  1175#	  1175	  1185	  1191
DATSIZ	    49#	   210
DATTDY	   245	   357#
DATTIM	    77%	   686	   692	   695	   701	   703
DATTMR	   247	   369#
DATTXT	    77%	   716	   717
DATUNC	    93	  1130#
DATUNT	   233	   312#
DATWRN	    77%	   705	   711	  1162
DATYST	   246	   366#
DAY	    78%	   412	   418	   444	   450	   461	   464	   490	   540	   551	   581	   594	   633	   639
	   647
DBAFCM	   950#	   959	   962
DCMIII	   535#	   590
DCNT	    15#	   210	   282	   298	   315	   325	   342	   361	   374	   387	   392	   417	   425	   428
	   449	   471	   483	   486	   539	   544	   550	   558	   561	   564	   568	   611	   626	   638
	   646	   651	   657	   662
DELDAT	    92	  1089#
DEPFIN	   480	   485#
DEPNUM	    94	   362	   431	   451	   474	   478#	   484	   541	   640	   648
DESDAT	   170#	   170	   176	   182	   184
DIPRS	    37#
DONXT	  1271	  1278#
DOWTBG	   556	   571#
DPLDW1	   939#	   948
RDATE - MOST OF THE REMIND DATE CODE	MACRO 12.5-46.0 21:52  2-MAR-81
RDATE.MAC	19-JUN-78 15:28		Symbol cross reference

DPLDY1	   929	   932#
DPMDW2	   938	   942#	   949
DPMDY2	   900	   908#
DPMDY3	   909#	   933	   940
DPMDY4	   904#	   930	   943
DPRAFC	   963	   976#
DPRAND	   851	  1005#
DPRBET	   850	  1002#
DPRBFC	   960	   972#
DPRDAF	   841	   962#
DPRDAT	   852	  1014#
DPRDAY	   835	   887#
DPRDBF	   840	   959#
DPRDOT	   833	   883#
DPRDOW	   834	   893#
DPRFRV	   848	   995#
DPRLDW	   837	   945#
DPRLDY	   839	   927#
DPRLPR	   853	  1008#
DPRMDW	   836	   935#
DPRMDY	   838	   898#
DPRNM1	   856#	   915
DPRNUM	   857	   861#	   926	   968
DPROR	   844	   983#
DPRREF	   845	   986#
DPRRPR	   854	  1011#
DPRSTR	   846	   989#
DPRUNT	   847	   992#
DPRWAF	   843	   975#
DPRWBF	   842	   971#
DPRXCP	   849	   999#
DPTR	    14#	   154	   155	   194	   195	   208	   209	   272	   281	   297	   314	   319	   324	   341
	   360	   373	   386	   391	   416	   424	   427	   448	   470	   482	   485	   538	   543	   549
	   557	   560	   563	   567	   610	   625	   637	   645	   650	   656	   661	   825	   826	   899
	   918	   922	   928	   937	   947	  1024	  1025	  1026	  1118	  1119	  1120	  1259	  1260	  1261
DSPIND	    38#
DTCMI	   465#	   495
DTCMII	   504#	   586
DTCMIV	   528#	   634
DTCMV	   445	   498#
DTEST	    92	   664#
DTEST1	   667#	   679
DTSBII	   504	   508#	   535	   606	   621
DWDLN3	    78%	   106	   108	   109
DWDTB	    78%	   103
EVOTHE	   898	   922#	   935
FBEF	    27#	   216	   294	   312	   322	   338	   371	   383	   433	   641	   652
FEXCPT	    24#	   216	   328	   331	   332	   333	   371	   375
FILDAT	   152	   188#
FILDT1	   173	   175#	   180	   185
FINDAT	   269	   275#
FL	     1#	   101	   168	   216	   217	   268	   279	   283	   294	   295	   300	   302	   304	   305
	   312	   321	   322	   327	   328	   332	   333	   338	   358	   371	   375	   382	   383	   385
RDATE - MOST OF THE REMIND DATE CODE	MACRO 12.5-46.0 21:52  2-MAR-81
RDATE.MAC	19-JUN-78 15:28		Symbol cross reference

	   393	   395	   397	   408	   432	   433	   434	   441	   454	   488	   579	   598	   617	   630	   641
	   652	   709	   767	   776	   791	   800	   824	   890	   978	  1197	  1249	  1267	  1278
FNDDAT	    78%	   669
FNDMTY	   724	   727	   809#
FNEED1	    23#	   217	   268	   279	   283	   295	   300	   305	   321	   338	   358	   371	   375	   382
	   385	   393	   395	   397	   408	   433	   441	   454	   488	   579	   598	   617	   630	  1249
	  1267	  1278
FRDATE	    26#	   300	   302	   432	   824	   890	   978
FREF	    25#	   216	   294	   300	   304	   312	   322	   338	   371	   383	   434
FREF2	    28#	   216	   294	   312	   328	   334	   371	   385	   393	   395	   397	   434
GENDAT	    76%	   667	  1102	  1123	  1262
GENTDY	    76%	   212	   357	   366	   369	   665	  1100	  1121	  1247
GETNM1	   888	   894	   909	   913#
GETNUM	    79%	   913	   950	   966	  1014
GMIN	   792	   796#
GMIN1	   798	   802#
GTIME	    94	   689	   698	   765#	  1172	  1182
GTNS	   778	   785#	   788	   801
GTREL	   768	   787#
GTS0	   783#	   807
GTS1	   766	   784#
HOURS	   789#	   789	   794	   802
IDF	    21#
ILLBET	   384	   400#
ILLDAT	   234	   237	   240	   241	   250#	   296	   313	   359	   409	   442	   455	   473	   489	   513
	   576	   580	   592	   599	   608	   616	   618	   623	   631
ILLDCM	   252#	   277	   288	   292	   310	   347	   351	   355	   380	   402	   406	   440	   573
ILLEXC	   372	   378#
ILLLPR	   323	   345#
ILLNAN	   390	   404#
ILLOR	   280	   286#
ILLREF	   303	   308#
ILLRPR	   340	   349#
ILLUMP	   271	   353#
INIDAT	    77%	   171	   722	  1081	  1250
INSDAT	    92	   685#
INSDT1	    94	   719	   722#	  1166
ITEM	    16#	   108	   117	   123	   222	   317	   389	   458	   466	   492	   493	   496	   500	   502
	   508	   512	   516	   522	   526	   531	   533	   575	   584	   587	   591	   602	   615	   826
	   827	   828	   831
ITMAFT	    91	   241#	   502	   531
ITMAND	    90	   237#	   389
ITMBEF	    91	   240#	   500	   533
ITMBET	    90	   236#
ITMDAY	    91	   239#	   496	   584	   615
ITMDOT	    89	   142	   228#
ITMDOW	    89	   229#	   526	   587	   602
ITMEND	    91	   242#
ITMEXC	    90	   235#
ITMFRV	    90	   234#	   317
ITMLPR	   143	   243#
ITMMN	    89	   230#	   492	   522
ITMMON	    90	   238#	   512	   516	   575	   591
RDATE - MOST OF THE REMIND DATE CODE	MACRO 12.5-46.0 21:52  2-MAR-81
RDATE.MAC	19-JUN-78 15:28		Symbol cross reference

ITMNM1	    89	   226#	   508
ITMNM2	    89	   227#
ITMNMB	   102	   122#
ITMNUM	    89	   123	   225#	   458	   466	   493
ITMOR	    89	   231#
ITMREF	    90	   232#
ITMRPR	   144	   244#
ITMSC1	   100#	   218
ITMSCN	    99#	   105	   107	   115	   122	   221	   299	   316	   336	   363	   414	   457	   465	   475
	   491	   499	   511	   530	   547	   582	   585	   589	   601	   605	   612	   620	   627
ITMSPC	   100	   112#
ITMTB	   222	   224#
ITMTDY	    91	   245#
ITMTMR	    91	   247#
ITMUNT	    90	   233#
ITMYST	    91	   246#
KEPDAT	   150	   161#
L1DATE	  1024#	  1084	  1140
LADSKP	  1083	  1085#	  1087
LADTS	    92	  1081#
LIDAT	    93	  1137#
LOKSPC	   725#	   728	   815	   819
LPRBDT	  1103	  1108#
LPRDAT	    92	  1099#
LPRTDY	    92	  1095#
LSTDAT	    75%	  1104	  1286
LSTTDY	    75%	  1095
MAL	    33#
MALHSH	    47#
MDWDLN	    78%	   103	   904	   919
MONPTR	    79%	   904
MONTH	    78%	   410	   426	   456	   494	   498	   524	   528	   562	   577	   583	   600	   619
MTARG	    78%	   666	   670	   672	  1101	  1122	  1256
MTYSRC	   817#	   820
N1	   413#	   413	   430	   510	   519	   566	   595
NAMBUF	    85%	   716	  1205	  1209
NMSC	    73%	   104	  1149
NOCDT	  1150	  1168#	  1227	  1241
NOCNC	  1068	  1073#
NOCTM	  1171	  1174	  1180	  1188	  1193#
NOCTXT	  1206	  1212#
NOCWRN	  1196	  1201#
NODAT	   668	   681#
NODLST	   723	   730#
NONUM	    85%	   169	   690	   710	  1173	  1183	  1198
NONUM0	    85%	   699
NOTIM	   691	   696	   702	   704#
NOTIMP	  1039	  1063#
NOWRN	   708	   712#
NSDT	   172	   177	   179	   183	   200#
NUMF	    22#	   101	   168	   709	   767	   776	   791	   800	  1197
NXTCHK	  1253#	  1273
NXTCOM	  1276	  1281#
RDATE - MOST OF THE REMIND DATE CODE	MACRO 12.5-46.0 21:52  2-MAR-81
RDATE.MAC	19-JUN-78 15:28		Symbol cross reference

NXTDAT	    77%	   178	   725	  1085	  1270
NXTSKP	  1252	  1263	  1270#	  1272
NXTTDY	  1266	  1275#
ONEDPR	   824#	  1019	  1032
ORGREF	    76%	   196	   214	  1217
OUTNUM	    81%	   760	   863	   955	  1029	  1045	  1050	  1057	  1062	  1066
OUTSIX	    81%	   905	   920
P	     8#	    99	   104	   110	   118	   120	   125	   148	   153	   159	   171	   178	   186	   188
	   189	   198	   211	   212	   213	   218	   221	   253	   273	   299	   301	   316	   327	   330
	   357	   362	   363	   366	   369	   388	   394	   396	   414	   431	   436	   451	   457	   465
	   472	   474	   475	   487	   491	   499	   504	   511	   514	   520	   525	   530	   535	   541
	   547	   582	   585	   589	   601	   605	   606	   612	   620	   621	   627	   640	   648	   664
	   665	   667	   671	   685	   688	   689	   697	   698	   706	   715	   719	   722	   725	   730
	   731	   733	   734	   735	   738	   739	   742	   743	   744	   745	   746	   748	   749	   750
	   757	   760	   763	   769	   770	   772	   775	   777	   779	   780	   783	   784	   785	   790
	   795	   799	   830	   859	   863	   873	   876	   879	   882	   885	   888	   894	   895	   898
	   905	   909	   913	   916	   924	   935	   936	   946	   950	   953	   955	   957	   959	   962
	   966	   968	   971	   975	   981	  1014	  1016	  1018	  1019	  1029	  1032	  1035	  1045	  1050
	  1057	  1062	  1066	  1071	  1079	  1081	  1084	  1085	  1090	  1091	  1092	  1095	  1099	  1100
	  1102	  1104	  1114	  1115	  1121	  1123	  1127	  1131	  1132	  1134	  1138	  1139	  1140	  1143
	  1144	  1147	  1149	  1151	  1152	  1153	  1154	  1164	  1166	  1169	  1172	  1181	  1182	  1194
	  1204	  1215	  1224	  1226	  1229	  1247	  1250	  1262	  1270	  1281	  1282	  1285	  1286
P2	     9#	   254
PDL	    81%	   253
PDL2	    81%	   254
PDLSZ	    43#	   253
PDLSZ2	    44#	   254
PLEVEL	   207#	   207	   270	   326	   339
PRDAT	    76%	   671	  1282
PRDAT1	    79%	  1016	  1035	  1071
PRND	   870	   878#
PRRD	   871	   881#
PRST	   869	   875#
PRTAB	   831	   833#
PRTH	   868	   872#
RDA0	   221#	   284	   320	   329	   335	   376	   388	   394	   642	   653
RDA1	   219	   222#	   301	   306	   396	   398	   435
RDATE	   147#	   664	   685	  1018	  1099	  1152
RDB0	   429	   432#	   452	   545	   565	   569
RDB1	   364	   433#	   476
RDBUF	    87%	   733	   744	   750
RDNAM	    85%	   715	  1204
RDTTY	   153	   206#
RELDAT	  1084#	  1088
REM	    32#
REMGET	    87%	   730	   742
REPDAT	  1158	  1226#
REPDT1	  1217#	  1226	  1229
RPR1	   330#	   343
RSTERR	    39#
SAVNXT	  1268#	  1268	  1269	  1280
SBII1	   509	   516#
SBII2	   517	   522#
RDATE - MOST OF THE REMIND DATE CODE	MACRO 12.5-46.0 21:52  2-MAR-81
RDATE.MAC	19-JUN-78 15:28		Symbol cross reference

SCAN	    73%	    99	   188	   697	   770	   775	   779	   790	   795	   799	  1181
SCANI	    73%	   148	   688	   706	  1090	  1114	  1131	  1138	  1143	  1147	  1169	  1194
SETDAT	   752#	   811	   821
SETPRI	    40#
SMLDAT	  1160	  1229#
SMLDT1	  1237#	  1240
SPCLEN	   112	   116	   117	   138#
SPCTBL	   113	   116	   117	   135#	   138
SRCDAT	  1248#	  1248	  1253	  1265	  1275
STPSCN	    41#
SVDPTR	    76%	   195	   209	   825	  1026	  1120	  1261
T1	     2#	   103	   106	   108	   109	   112	   113	   114	   115	   116	   117	   155	   156	   157
	   158	   196	   197	   214	   215	   330	   331	   334	   367	   370	   415	   416	   418	   419
	   420	   422	   424	   426	   427	   429	   430	   443	   444	   447	   448	   450	   460	   461
	   469	   470	   478	   479	   480	   518	   519	   537	   538	   540	   542	   543	   548	   549
	   551	   552	   553	   555	   557	   559	   560	   562	   563	   565	   566	   567	   593	   594
	   595	   609	   610	   624	   625	   632	   633	   636	   637	   639	   644	   645	   647	   649
	   650	   655	   656	   660	   661	   666	   669	   670	   675	   676	   677	   694	   695	   700
	   701	   714	   716	   717	   740	   741	   746	   747	   755	   756	   864	   865	   866	   867
	   868	  1015	  1034	  1038	  1040	  1041	  1042	  1052	  1053	  1054	  1067	  1101	  1116	  1117
	  1122	  1125	  1126	  1148	  1156	  1157	  1159	  1161	  1162	  1163	  1203	  1208	  1209	  1210
	  1211	  1213	  1214	  1217	  1218	  1219	  1220	  1223	  1230	  1231	  1237	  1238	  1239	  1248
	  1253	  1254	  1255	  1256	  1257	  1258	  1264	  1265	  1268	  1269	  1275	  1280	  1281	  1285
T2	     3#	   175	   176	   181	   182	   184	   190	   193	   478	   481	   482	   485	   692	   694
	   703	   753	   754	   756	   772	   773	   777	   780	   781	   782	   802	   803	   806	   809
	   810	   811	   814	   820	   866	   869	   870	   871	  1047	  1058	  1175	  1177	  1179	  1184
	  1185	  1187	  1190	  1191	  1192	  1210	  1211	  1221	  1222	  1223	  1232	  1233	  1234	  1235
	  1240
T3	     4#	   122	   124	   170	   211	   213	   711	   759	   769	   782	   793	   794	   797	   803
	   804	   805	   806	   812	   813	   814	   816	   817	   818	   862	   899	   900	   904	   918
	   919	   928	   929	   937	   938	   947	   948	   954	  1028	  1042	  1043	  1047	  1048	  1054
	  1055	  1058	  1060	  1065	  1153	  1200	  1236	  1237
T4	     5#
T5	     6#
TDYCOM	   358#	   367	   370
TERMF	    73%	   149	   707	   765	  1170	  1195
TRYDAT	   174	   181#
TTY	    31#	   713	  1202
WABFCM	   965#	   971	   975
WKDPR	   895	   918#	   936	   946	   969
WKDPTR	    79%	   919
WRTBUF	    87%	   735	   748	   757	  1127	  1134	  1215
YDCNV	    76%	   472
YEAR	    78%	   468	   529	   542	   559	   588	   604	   649
YESTBL	  1148	  1243#
RDATE - MOST OF THE REMIND DATE CODE	MACRO 12.5-46.0 21:52  2-MAR-81
RDATE.MAC	19-JUN-78 15:28		Macro/Opdef cross reference

GETLCH	   676
IDATE	   266#	   415	   447	   469	   537	   548	   609	   624	   636	   644	   655	   660
MDATE	   262#	   426	   542	   559	   562	   566	   649
MSTIME	   804
OUTCHI	  1044	  1046	  1049	  1051	  1056	  1059	  1072
OUTCHR	  1061
OUTSTR	   147	   163	   200	   250	   275	   286	   290	   308	   345	   349	   353	   378	   400	   404
	   438	   571	   673	   681	   687	   704	   712	   758	   761	   858	   872	   875	   878	   881
	   883	   887	   889	   893	   901	   903	   908	   910	   923	   925	   927	   932	   939	   942
	   945	   952	   956	   965	   972	   976	   979	   983	   986	   989	   992	   995	   999	  1002
	  1005	  1008	  1011	  1027	  1030	  1033	  1036	  1063	  1069	  1073	  1075	  1076	  1089	  1108
	  1113	  1130	  1137	  1142	  1146	  1165	  1168	  1193	  1201	  1283
SDATE	   258#	   281	   297	   314	   324	   341	   360	   373	   386	   391	   416	   424	   427	   448
	   470	   482	   485	   538	   543	   549	   557	   560	   563	   567	   610	   625	   637	   645
	   650	   656	   661
SPC	   128#	   135	   142
TABLE	    60#
WRD	    53#
X	   133#	   135	   136	   137	   141#	   142	   143	   144  RCDATE - COMMON DATE STUFF FOR REMIND AND SEC	MACRO 12.5-46.0 21:52  2-MAR-81 PAGE 1
RPARAM.MAC	12-APR-78 19:35	

     1			000000	00100	FL=0
     2			000001	00200	T1=1
     3			000002	00300	T2=2
     4			000003	00400	T3=3
     5			000004	00500	T4=4
     6			000005	00600	t5=5
     7
     8			000017	00800	P=17
     9			000016	00900	P2=16
    10			000015	01000	CS=15		;CHARACTER FLAGS
    11			000014	01100	C=14		;CHARACTER
    12			000013	01200	BUF=13
    13			000012	01300	BLK=12
    14			000011	01400	DPTR=11		;POINTER TO DATE STRING
    15			000010	01500	DCNT=10		;NUMBER OF CHRS LEFT TO PUT IN DATE STRING
    16			000007	01600	ITEM=7	;BACK FROM THE SCANNER
    17			000006	01700	CODE=6		;ALSO BACK FROM THE SCANER
    18
    19				01900	;FLAGS IN F (RH)
    20
    21			000001	02100	IDF==1		;IDENT SEEN BY SCANNER
    22			000002	02200	NUMF==2		;NUMBER SEEN BY SCANNER
    23			000004	02300	FNEED1==4	;FLAG FOR DATES, A DATE NEEDED
    24			000010	02400	FEXCPT==10	;FLAG FOR DATES, IN EXCEPT
    25			000020	02500	FREF==20	;FLAG FOR DATES, READ A REFERENCE (ETC.) DATE
    26			000040	02600	FRDATE==40	;FLAG FOR DATES, REAL DATE (USED BY REF)
    27			000100	02700	FBEF==100	;IN A BEFORE OR AFTER STREAM
    28			000200	02800	FREF2==200	;FLAG FOR BETWEEN ( IS PERMITTED ELSE LIKE FREF
    29			000400	02900	circ==400	;flag for circuit built (alarm)
    30
    31			000001	03100	TTY==1
    32			000002	03200	REM==2
    33			000003	03300	MAL==3		;MAILBOX
    34
    35				03500	;FLAGS IN LH OF COMMAND TABLE
    36
    37			400000	03700	DIPRS==400000	;DISPATCH ADDRESS PRESENT
    38			200000	03800	DSPIND==200000		;DISPATCH INCREMENT PRESENT
    39			100000	03900	RSTERR==100000		;RESET ERROR TABLE
    40			040000	04000	SETPRI==040000		;"PRIMARY" COMMAND
    41			020000	04100	STPSCN==020000		;DISPATCH NOW, END OF COMMAND
    42
    43			000040	04300	PDLSZ==40
    44			000020	04400	PDLSZ2==20
    45
    46
    47			000177	04700	MALHSH==177	;HASH FOR LOOKING AT MAILBOX
    48
    49			000156	04900	DATSIZ==^D110	;SIZE OF DATE STORAGE (MAX)
RCDATE - COMMON DATE STUFF FOR REMIND AND SEC	MACRO 12.5-46.0 21:52  2-MAR-81 PAGE 2
RPARAM.MAC	12-APR-78 19:35	

    50				00100	;DEFINITION OF MACRO TO GENERATE THE FIRST 3 WORDS OF SIXBIT
    51
    52				00300		DEFINE WRD(A,B)
    53				00400	<ZZ==0
    54				00500	ZZ1==0
    55				00600		IRPC A,<ZZ=ZZ+1
    56				00700	IFG ZZ-B,<IFLE ZZ-B-6,<ZZ1==ZZ1_6+''A''>>>
    57				00800	IFL ZZ-B-6,<ZZ1==ZZ1_<<B+6-ZZ>*6>>
    58				00900		ZZ1>
    59				01000		DEFINE TABLE (A)
    60				01100	<	DEFINE X(B,C,D,E)
    61				01200	<	WRD (B,0)>
    62				01300		A
    63				01400		DEFINE X(B,C,D,E)
    64				01500	<	WRD (B,6)>
    65				01600		A
    66				01700		DEFINE X(B,C,D,E)
    67				01800	<	WRD (B,^D12)>
    68				01900		A>
RCDATE - COMMON DATE STUFF FOR REMIND AND SEC	MACRO 12.5-46.0 21:52  2-MAR-81 PAGE 1
RCDATE.MAC	19-JUN-78 15:07	

    69				00100	TITLE RCDATE - COMMON DATE STUFF FOR REMIND AND SEC
    70
    71
    72				00400	;DEFINITIONS OF ITEMS
    73			000000	00500	ITMNUM==0
    74			000001	00600	ITMNM1==1
    75			000002	00700	ITMNM2==2
    76			000003	00800	ITMDOT==3
    77			000004	00900	ITMDOW==4
    78			000005	01000	ITMMN==5
    79			000006	01100	ITMOR==6
    80			000007	01200	ITMREF==7
    81			000010	01300	ITMUNT==10
    82			000011	01400	ITMFRV==11
    83			000012	01500	ITMEXC==12
    84			000013	01600	ITMBET==13
    85			000014	01700	ITMAND==14
    86			000015	01800	ITMMON==15
    87			000016	01900	ITMDAY==16
    88			000017	02000	ITMBEF==17
    89			000020	02100	ITMAFT==20
    90			000021	02200	ITMEND==21
    91			000024	02300	ITMTDY==24
    92			000025	02400	ITMYST==25
    93			000026	02500	ITMTMR==26
    94
    95				02700	;NO INTERNAL TO CHECK FOR CONFLICT WITH RDATE
    96				02800	INTERNAL ITMNUM,ITMNM1,ITMNM2,ITMDOT,ITMDOW,ITMMN
    97				02900	INTERNAL ITMOR,ITMREF,ITMUNT,ITMFRV,ITMEXC,ITMBET,ITMAND
    98				03000	INTERNAL ITMMON,ITMDAY,ITMBEF,ITMAFT,ITMEND,ITMTDY,ITMYST,ITMTMR
    99				03100	INTERNAL SVDPTR,GENTDY,YDCNV,GENDAT,PRDAT
   100				03200	INTERNAL MDWDLN,DWDLN3,DWDTB,YEAR,MONTH,DAY,FNDDAT,MTARG
   101				03300	INTERNAL INIDAT,NXTDAT,DATNMB,clralr
   102				03350	internal datcnc,orgref,datwrn,datbuf,datcnt,dattim,dattxt
   103				03400	INTERNAL WKDPTR,MONPTR,PRDAT1,GETNUM,DATREF,DATDL1,LSTTDY,LSTDAT
   104
   105				03600	;IN RCOM
   106				03700	EXTERNAL CPOPJ,CPOPJ1,OUTSIX,OUTNUM
   107				03800	;IN RIO
   108				03900	EXTERNAL RDBUF,BUFDTA,WRTBUF
RCDATE - COMMON DATE STUFF FOR REMIND AND SEC	MACRO 12.5-46.0 21:52  2-MAR-81 PAGE 2
RCDATE.MAC	19-JUN-78 15:07	

   109				00010	COMMENT &
   110				00020	THE DATE STRING IS A SERIES OF 5 BIT BYTES AS FOLLOWES
   111
   112				00040	<DOW> STANDS FOR ANY DAY OF THE WEEK (MONDAY, ETC)
   113				00050	<N1>, <N2> ETC. STANDS FOR A NUMBER. A NUMBER IS STORED AS
   114				00060		A SERIES OF 5 BIT FIELDS. THE HIGH ORDER BIT OF
   115				00070		ONE OF THE FIELDS BEING 1 INDICATES MORE FILEDS FOLLOW.
   116				00080		THE FIRST 5 BITS FILED HAS THE LOW ORDER 4 BITS OF
   117				00090		THE NUMBER.
   118				00100	<N'1>, <N'2>, ETC. STANDS FOR A NUMBER WHICH FITS IN 5 BITS.
   119				00110	<MONTH> STANDS FOR THE NAME OF A MONTH.
   120				00120	A MONTH IS STORED WITH JANUARY=1, DECEMBER=12
   121				00130	A DAY OF THE WEEK IS STORED AS SUNDAY=0, SATURDAY=6
   122
   123				00150	BYTE=0 END OF DATE
   124				00160	BYTE=1 USED FOR 'EVERY <N1>TH <DOW>' STORED 1,NUMBER,DOW
   125				00170	BYTE=2 USED FOR 'EVERY <N1> DAYS' STORED 2,NUMBER
   126				00180	BYTE=3 USED FOR 'THE <N'1>TH <DOW> OF EVERY <N2> MONTHS'
   127				00190		STORED AS 3,N'1,DOW,0,NUMBER. IF N'1=0 IT MEANS
   128				00200		'EVERY <DOW> OF EVERY <N2> MONTHS'
   129				00210		ALSO USED FOR 'THE <N'1>TH <DOW> OF <MONTH>'
   130				00220		STORED AS 3,N'1,MONTH
   131				00230	BYTE=4 USED FOR 'THE LAST <DOW> OF EVERY <N2> MONTHS'
   132				00240		STORED AS 4,DOW,0,NUMBER
   133				00250		ALSO USED FOR 'THE LAST <DOW> OF <MONTH>'
   134				00260		STORED AS 4,DOW,MONTH
   135				00270	BYTE=5 USED FOR 'THE <N'1>TH DAY OF EVERY <N2> MONTHS'
   136				00280		STORED AS 5,N'1,0,NUMBER
   137				00290		IF N'1=0 IT MEANS 'EVERY DAY OF EVERY <N2> MONTHS'
   138				00300		ALSO USED FOR 'THE <N'1>TH DAY OF <MONTH>' OR
   139				00310		'<MONTH> <N'1>' STORED AS 5,N'1,MONTH
   140				00320	BYTE=6 USED FOR 'THE LAST DAY OF EVERY <N2> MONTHS'
   141				00330		STORED AS 6,0,NUMBER
   142				00340		ALSO USED FOR 'THE LAST DAY OF <MONTH>
   143				00350		STORED AS 6,MONTH
   144				00360	BYTE=7	USED FOR '<N1> DAYS BEFORE' STORED AS 7,NUMBER
   145				00370	BYTE=8 USED FOR '<N1> DAYS AFTER' STORED AS 8,NUMBER
   146				00380	BYTE=9 USED FOR 'THE <N1>TH <DOW> BEFORE' STORED AS 9,NUMBER,DOW
   147				00390	BYTE=10 USED FOR 'THE <N1>TH <DOW> AFTER'
   148				00400		STORED AS 10,NUMBER,DOW
   149				00410	BYTE=11 USED FOR 'OR' ANOTHER DATE FOLLOWES
   150				00420	BYTE=12 USED FOR 'REFERENCE' ANOTHER DATE FOLLOWES
   151				00430	BYTE=13 USED FOR 'STARTING' ANOTHER DATE FOLLOWES
   152				00440	BYTE=14 USED FOR 'UNTIL' ANOTHER DATE FOLLOWES
   153				00450	BYTE=15 USED FOR 'UNTIL FOREVER'
   154				00460	BYTE=16 USED FOR 'EXCEPT' ANOTHER DATE EXPRESSION FOLLOWES
   155				00470	BYTE=17 USED FOR 'BETWEEN' A DATE EXPRESSION FOLLOWES THEN
   156				00480	BYTE=18 USED FOR 'AND' A DATE EXPRESSION FOLLOWES
   157				00490	BYTE=19 A DATE AS 'JANUARY 25,1972' STORED AS 19,NUMBER
   158				00500		THE NUMBER IS THE NUMBER OF DAYS SINCE JANUARY 1,1964
   159				00510	BYTE=20 USED FOR ( INDICATES NESTING
   160				00520	BYTE=21 USED FOR ) CLOSE NESTING
   161				00530	&
RCDATE - COMMON DATE STUFF FOR REMIND AND SEC	MACRO 12.5-46.0 21:52  2-MAR-81 PAGE 3
RCDATE.MAC	19-JUN-78 15:07	

   162				00010		DEFINE DATEB
   163				00020	<	X SUNDAY,ITMDOW,0
   164				00030		X MONDAY,ITMDOW,1
   165				00040		X TUESDAY,ITMDOW,2
   166				00050		X WEDNESDAY,ITMDOW,3
   167				00060		X THURSDAY,ITMDOW,4
   168				00070		X FRIDAY,ITMDOW,5
   169				00080		X SATURDAY,ITMDOW,6
   170				00090		X JANUARY,ITMMN,1
   171				00100		X FEBRUARY,ITMMN,2
   172				00110		X MARCH,ITMMN,3
   173				00120		X APRIL,ITMMN,4
   174				00130		X MAY,ITMMN,5
   175				00140		X JUNE,ITMMN,6
   176				00150		X JULY,ITMMN,7
   177				00160		X AUGUST,ITMMN,8
   178				00170		X SEPTEMBER,ITMMN,9
   179				00180		X OCTOBER,ITMMN,10
   180				00190		X NOVEMBER,ITMMN,11
   181				00200		X DECEMBER,ITMMN,12
   182				00210		X MON,ITMDOW,1
   183				00220		X OR,ITMOR,11
   184				00230		X REFERENCE,ITMREF,12
   185				00240		X BASE,ITMREF,12
   186				00250		X STARTING,ITMREF,13
   187				00260		X ST,-1,-1
   188				00270		X UNTIL,ITMUNT,14
   189				00280		X TODAY,ITMTDY,19
   190				00290		X YESTERDAY,ITMYST,19
   191				00300		X TOMORROW,ITMTMR,19
   192				00310		X FOREVER,ITMFRV,15
   193				00320		X EXCEPT,ITMEXC,16
   194				00330		X BETWEEN,ITMBET,17
   195				00340		X AND,ITMAND,18
   196				00350		X MONTHS,ITMMON,0
   197				00360		X DAYS,ITMDAY,0
   198				00370		X LAST,ITMNM2,0
   199				00380		X END,ITMEND,0
   200				00390		X OTHER,ITMNM1,2
   201				00400		X BEFORE,ITMBEF,0
   202				00410		X AFTER,ITMAFT,0
   203				00420		X FIRST,ITMNUM,1
   204				00430		X SECOND,ITMNUM,2
   205				00440		X THIRD,ITMNUM,3
   206				00450		X FOURTH,ITMNUM,4
   207				00460		X FIFTH,ITMNUM,5
   208				00470		X SIXTH,ITMNUM,6
   209				00480		X SEVENTH,ITMNUM,7
   210				00490		X EIGHTH,ITMNUM,8
   211				00500		X NINTH,ITMNUM,9
   212				00510		X TENTH,ITMNUM,10
   213				00520		X ELEVENTH,ITMNUM,11
   214				00530		X TWELFTH,ITMNUM,12
RCDATE - COMMON DATE STUFF FOR REMIND AND SEC	MACRO 12.5-46.0 21:52  2-MAR-81 PAGE 3-2
RCDATE.MAC	19-JUN-78 15:07	

   215				00540		X THIRTEENTH,ITMNUM,13
   216				00550		X FOURTEENTH,ITMNUM,14
   217				00560		X FIFTEENTH,ITMNUM,15
   218				00570		X SIXTEENTH,ITMNUM,16
   219				00580		X SEVENTEENTH,ITMNUM,17
   220				00590		X EIGHTEENTH,ITMNUM,18
   221				00600		X NINETEENTH,ITMNUM,19
   222				00610		X TWENTIETH,ITMNUM,20
   223				00620		X TWENTYFIRST,ITMNUM,21
   224				00630		X TWENTYSECOND,ITMNUM,22
   225				00640		X TWENTYTHIRD,ITMNUM,23
   226				00650		X TWENTYFOURTH,ITMNUM,24
   227				00660		X TWENTYFIFTH,ITMNUM,25
   228				00670		X TWENTYSIXTH,ITMNUM,26
   229				00680		X TWENTYSEVENTH,ITMNUM,27
   230				00690		X TWENTYEIGHTH,ITMNUM,28
   231				00700		X TWENTYNINTH,ITMNUM,29
   232				00710		X THIRTIETH,ITMNUM,30
   233				00720		X THIRTYFIRST,ITMNUM,31>
RCDATE - COMMON DATE STUFF FOR REMIND AND SEC	MACRO 12.5-46.0 21:52  2-MAR-81 PAGE 4
RCDATE.MAC	19-JUN-78 15:07	

   234				00010	DWDTB:	TABLE (DATEB)^	DEFINE X(B,C,D,E)
   235					<	WRD (B,0)>
   236	000000'	636556	444171			ZZ1^^
   237	000001'	555756	444171			ZZ1^^
   238	000002'	646545	634441			ZZ1^^
   239	000003'	674544	564563			ZZ1^^
   240	000004'	645065	626344			ZZ1^^
   241	000005'	466251	444171			ZZ1^^
   242	000006'	634164	656244			ZZ1^^
   243	000007'	524156	654162			ZZ1^^
   244	000010'	464542	626541			ZZ1^^
   245	000011'	554162	435000			ZZ1^^
   246	000012'	416062	515400			ZZ1^^
   247	000013'	554171	000000			ZZ1^^
   248	000014'	526556	450000			ZZ1^^
   249	000015'	526554	710000			ZZ1^^
   250	000016'	416547	656364			ZZ1^^
   251	000017'	634560	644555			ZZ1^^
   252	000020'	574364	574245			ZZ1^^
   253	000021'	565766	455542			ZZ1^^
   254	000022'	444543	455542			ZZ1^^
   255	000023'	555756	000000			ZZ1^^
   256	000024'	576200	000000			ZZ1^^
   257	000025'	624546	456245			ZZ1^^
   258	000026'	424163	450000			ZZ1^^
   259	000027'	636441	626451			ZZ1^^
   260	000030'	636400	000000			ZZ1^^
   261	000031'	655664	515400			ZZ1^^
   262	000032'	645744	417100			ZZ1^^
   263	000033'	714563	644562			ZZ1^^
   264	000034'	645755	576262			ZZ1^^
   265	000035'	465762	456645			ZZ1^^
   266	000036'	457043	456064			ZZ1^^
   267	000037'	424564	674545			ZZ1^^
   268	000040'	415644	000000			ZZ1^^
   269	000041'	555756	645063			ZZ1^^
   270	000042'	444171	630000			ZZ1^^
   271	000043'	544163	640000			ZZ1^^
   272	000044'	455644	000000			ZZ1^^
   273	000045'	576450	456200			ZZ1^^
   274	000046'	424546	576245			ZZ1^^
   275	000047'	414664	456200			ZZ1^^
   276	000050'	465162	636400			ZZ1^^
   277	000051'	634543	575644			ZZ1^^
   278	000052'	645051	624400			ZZ1^^
   279	000053'	465765	626450			ZZ1^^
   280	000054'	465146	645000			ZZ1^^
   281	000055'	635170	645000			ZZ1^^
   282	000056'	634566	455664			ZZ1^^
   283	000057'	455147	506450			ZZ1^^
   284	000060'	565156	645000			ZZ1^^
   285	000061'	644556	645000			ZZ1^^
   286	000062'	455445	664556			ZZ1^^
RCDATE - COMMON DATE STUFF FOR REMIND AND SEC	MACRO 12.5-46.0 21:52  2-MAR-81 PAGE 4-2
RCDATE.MAC	19-JUN-78 15:07	

   287	000063'	646745	544664			ZZ1^^
   288	000064'	645051	626445			ZZ1^^
   289	000065'	465765	626445			ZZ1^^
   290	000066'	465146	644545			ZZ1^^
   291	000067'	635170	644545			ZZ1^^
   292	000070'	634566	455664			ZZ1^^
   293	000071'	455147	506445			ZZ1^^
   294	000072'	565156	456445			ZZ1^^
   295	000073'	646745	566451			ZZ1^^
   296	000074'	646745	566471			ZZ1^^
   297	000075'	646745	566471			ZZ1^^
   298	000076'	646745	566471			ZZ1^^
   299	000077'	646745	566471			ZZ1^^
   300	000100'	646745	566471			ZZ1^^
   301	000101'	646745	566471			ZZ1^^
   302	000102'	646745	566471			ZZ1^^
   303	000103'	646745	566471			ZZ1^^
   304	000104'	646745	566471			ZZ1^^
   305	000105'	645051	626451			ZZ1^^
   306	000106'	645051	626471			ZZ1^^^
   307	000107'	000000	000000			ZZ1^^
   308	000110'	000000	000000			ZZ1^^
   309	000111'	710000	000000			ZZ1^^
   310	000112'	444171	000000			ZZ1^^
   311	000113'	417100	000000			ZZ1^^
   312	000114'	000000	000000			ZZ1^^
   313	000115'	417100	000000			ZZ1^^
   314	000116'	710000	000000			ZZ1^^
   315	000117'	627100	000000			ZZ1^^
   316	000120'	000000	000000			ZZ1^^
   317	000121'	000000	000000			ZZ1^^
   318	000122'	000000	000000			ZZ1^^
   319	000123'	000000	000000			ZZ1^^
   320	000124'	000000	000000			ZZ1^^
   321	000125'	000000	000000			ZZ1^^
   322	000126'	424562	000000			ZZ1^^
   323	000127'	620000	000000			ZZ1^^
   324	000130'	456200	000000			ZZ1^^
   325	000131'	456200	000000			ZZ1^^
   326	000132'	000000	000000			ZZ1^^
   327	000133'	000000	000000			ZZ1^^
   328	000134'	564345	000000			ZZ1^^
   329	000135'	000000	000000			ZZ1^^
   330	000136'	564700	000000			ZZ1^^
   331	000137'	000000	000000			ZZ1^^
   332	000140'	000000	000000			ZZ1^^
   333	000141'	000000	000000			ZZ1^^
   334	000142'	444171	000000			ZZ1^^
   335	000143'	576700	000000			ZZ1^^
   336	000144'	620000	000000			ZZ1^^
   337	000145'	000000	000000			ZZ1^^
   338	000146'	560000	000000			ZZ1^^
   339	000147'	000000	000000			ZZ1^^
RCDATE - COMMON DATE STUFF FOR REMIND AND SEC	MACRO 12.5-46.0 21:52  2-MAR-81 PAGE 4-3
RCDATE.MAC	19-JUN-78 15:07	

   340	000150'	000000	000000			ZZ1^^
   341	000151'	000000	000000			ZZ1^^
   342	000152'	000000	000000			ZZ1^^
   343	000153'	000000	000000			ZZ1^^
   344	000154'	000000	000000			ZZ1^^
   345	000155'	000000	000000			ZZ1^^
   346	000156'	000000	000000			ZZ1^^
   347	000157'	000000	000000			ZZ1^^
   348	000160'	000000	000000			ZZ1^^
   349	000161'	000000	000000			ZZ1^^
   350	000162'	000000	000000			ZZ1^^
   351	000163'	000000	000000			ZZ1^^
   352	000164'	000000	000000			ZZ1^^
   353	000165'	500000	000000			ZZ1^^
   354	000166'	000000	000000			ZZ1^^
   355	000167'	000000	000000			ZZ1^^
   356	000170'	000000	000000			ZZ1^^
   357	000171'	645000	000000			ZZ1^^
   358	000172'	500000	000000			ZZ1^^
   359	000173'	455664	500000			ZZ1^^
   360	000174'	455664	500000			ZZ1^^
   361	000175'	566450	000000			ZZ1^^
   362	000176'	566450	000000			ZZ1^^
   363	000177'	454556	645000			ZZ1^^
   364	000200'	455664	500000			ZZ1^^
   365	000201'	455664	500000			ZZ1^^
   366	000202'	456450	000000			ZZ1^^
   367	000203'	465162	636400			ZZ1^^
   368	000204'	634543	575644			ZZ1^^
   369	000205'	645051	624400			ZZ1^^
   370	000206'	465765	626450			ZZ1^^
   371	000207'	465146	645000			ZZ1^^
   372	000210'	635170	645000			ZZ1^^
   373	000211'	634566	455664			ZZ1^^
   374	000212'	455147	506450			ZZ1^^
   375	000213'	565156	645000			ZZ1^^
   376	000214'	456450	000000			ZZ1^^
   377	000215'	465162	636400			ZZ1^^^
   378	000216'	000000	000000			ZZ1^^
   379	000217'	000000	000000			ZZ1^^
   380	000220'	000000	000000			ZZ1^^
   381	000221'	000000	000000			ZZ1^^
   382	000222'	000000	000000			ZZ1^^
   383	000223'	000000	000000			ZZ1^^
   384	000224'	000000	000000			ZZ1^^
   385	000225'	000000	000000			ZZ1^^
   386	000226'	000000	000000			ZZ1^^
   387	000227'	000000	000000			ZZ1^^
   388	000230'	000000	000000			ZZ1^^
   389	000231'	000000	000000			ZZ1^^
   390	000232'	000000	000000			ZZ1^^
   391	000233'	000000	000000			ZZ1^^
   392	000234'	000000	000000			ZZ1^^
RCDATE - COMMON DATE STUFF FOR REMIND AND SEC	MACRO 12.5-46.0 21:52  2-MAR-81 PAGE 4-4
RCDATE.MAC	19-JUN-78 15:07	

   393	000235'	000000	000000			ZZ1^^
   394	000236'	000000	000000			ZZ1^^
   395	000237'	000000	000000			ZZ1^^
   396	000240'	000000	000000			ZZ1^^
   397	000241'	000000	000000			ZZ1^^
   398	000242'	000000	000000			ZZ1^^
   399	000243'	000000	000000			ZZ1^^
   400	000244'	000000	000000			ZZ1^^
   401	000245'	000000	000000			ZZ1^^
   402	000246'	000000	000000			ZZ1^^
   403	000247'	000000	000000			ZZ1^^
   404	000250'	000000	000000			ZZ1^^
   405	000251'	000000	000000			ZZ1^^
   406	000252'	000000	000000			ZZ1^^
   407	000253'	000000	000000			ZZ1^^
   408	000254'	000000	000000			ZZ1^^
   409	000255'	000000	000000			ZZ1^^
   410	000256'	000000	000000			ZZ1^^
   411	000257'	000000	000000			ZZ1^^
   412	000260'	000000	000000			ZZ1^^
   413	000261'	000000	000000			ZZ1^^
   414	000262'	000000	000000			ZZ1^^
   415	000263'	000000	000000			ZZ1^^
   416	000264'	000000	000000			ZZ1^^
   417	000265'	000000	000000			ZZ1^^
   418	000266'	000000	000000			ZZ1^^
   419	000267'	000000	000000			ZZ1^^
   420	000270'	000000	000000			ZZ1^^
   421	000271'	000000	000000			ZZ1^^
   422	000272'	000000	000000			ZZ1^^
   423	000273'	000000	000000			ZZ1^^
   424	000274'	000000	000000			ZZ1^^
   425	000275'	000000	000000			ZZ1^^
   426	000276'	000000	000000			ZZ1^^
   427	000277'	000000	000000			ZZ1^^
   428	000300'	000000	000000			ZZ1^^
   429	000301'	000000	000000			ZZ1^^
   430	000302'	000000	000000			ZZ1^^
   431	000303'	000000	000000			ZZ1^^
   432	000304'	000000	000000			ZZ1^^
   433	000305'	000000	000000			ZZ1^^
   434	000306'	000000	000000			ZZ1^^
   435	000307'	000000	000000			ZZ1^^
   436	000310'	000000	000000			ZZ1^^
   437	000311'	000000	000000			ZZ1^^
   438	000312'	000000	000000			ZZ1^^
   439	000313'	000000	000000			ZZ1^^
   440	000314'	000000	000000			ZZ1^^
   441	000315'	000000	000000			ZZ1^^
   442	000316'	000000	000000			ZZ1^^
   443	000317'	000000	000000			ZZ1^^
   444	000320'	500000	000000			ZZ1^^
   445	000321'	000000	000000			ZZ1^^
RCDATE - COMMON DATE STUFF FOR REMIND AND SEC	MACRO 12.5-46.0 21:52  2-MAR-81 PAGE 4-5
RCDATE.MAC	19-JUN-78 15:07	

   446	000322'	000000	000000			ZZ1^^
   447	000323'	000000	000000			ZZ1^^
   448	000324'	000000	000000			ZZ1^^^
   449			000325'	00020	DWDLN==.
   450				00030		DEFINE X(A,B,C)
   451				00040	<	XWD ^D'C,B>
   452	000325'	000000	000004	00050		DATEB^	X SUNDAY,ITMDOW,0^	XWD ^D0,ITMDOW^
   453	000326'	000001	000004			X MONDAY,ITMDOW,1^	XWD ^D1,ITMDOW^
   454	000327'	000002	000004			X TUESDAY,ITMDOW,2^	XWD ^D2,ITMDOW^
   455	000330'	000003	000004			X WEDNESDAY,ITMDOW,3^	XWD ^D3,ITMDOW^
   456	000331'	000004	000004			X THURSDAY,ITMDOW,4^	XWD ^D4,ITMDOW^
   457	000332'	000005	000004			X FRIDAY,ITMDOW,5^	XWD ^D5,ITMDOW^
   458	000333'	000006	000004			X SATURDAY,ITMDOW,6^	XWD ^D6,ITMDOW^
   459	000334'	000001	000005			X JANUARY,ITMMN,1^	XWD ^D1,ITMMN^
   460	000335'	000002	000005			X FEBRUARY,ITMMN,2^	XWD ^D2,ITMMN^
   461	000336'	000003	000005			X MARCH,ITMMN,3^	XWD ^D3,ITMMN^
   462	000337'	000004	000005			X APRIL,ITMMN,4^	XWD ^D4,ITMMN^
   463	000340'	000005	000005			X MAY,ITMMN,5^	XWD ^D5,ITMMN^
   464	000341'	000006	000005			X JUNE,ITMMN,6^	XWD ^D6,ITMMN^
   465	000342'	000007	000005			X JULY,ITMMN,7^	XWD ^D7,ITMMN^
   466	000343'	000010	000005			X AUGUST,ITMMN,8^	XWD ^D8,ITMMN^
   467	000344'	000011	000005			X SEPTEMBER,ITMMN,9^	XWD ^D9,ITMMN^
   468	000345'	000012	000005			X OCTOBER,ITMMN,10^	XWD ^D10,ITMMN^
   469	000346'	000013	000005			X NOVEMBER,ITMMN,11^	XWD ^D11,ITMMN^
   470	000347'	000014	000005			X DECEMBER,ITMMN,12^	XWD ^D12,ITMMN^
   471	000350'	000001	000004			X MON,ITMDOW,1^	XWD ^D1,ITMDOW^
   472	000351'	000013	000006			X OR,ITMOR,11^	XWD ^D11,ITMOR^
   473	000352'	000014	000007			X REFERENCE,ITMREF,12^	XWD ^D12,ITMREF^
   474	000353'	000014	000007			X BASE,ITMREF,12^	XWD ^D12,ITMREF^
   475	000354'	000015	000007			X STARTING,ITMREF,13^	XWD ^D13,ITMREF^
   476	000355'	777777	777777			X ST,-1,-1^	XWD ^D-1,-1^
   477	000356'	000016	000010			X UNTIL,ITMUNT,14^	XWD ^D14,ITMUNT^
   478	000357'	000023	000024			X TODAY,ITMTDY,19^	XWD ^D19,ITMTDY^
   479	000360'	000023	000025			X YESTERDAY,ITMYST,19^	XWD ^D19,ITMYST^
   480	000361'	000023	000026			X TOMORROW,ITMTMR,19^	XWD ^D19,ITMTMR^
   481	000362'	000017	000011			X FOREVER,ITMFRV,15^	XWD ^D15,ITMFRV^
   482	000363'	000020	000012			X EXCEPT,ITMEXC,16^	XWD ^D16,ITMEXC^
   483	000364'	000021	000013			X BETWEEN,ITMBET,17^	XWD ^D17,ITMBET^
   484	000365'	000022	000014			X AND,ITMAND,18^	XWD ^D18,ITMAND^
   485	000366'	000000	000015			X MONTHS,ITMMON,0^	XWD ^D0,ITMMON^
   486	000367'	000000	000016			X DAYS,ITMDAY,0^	XWD ^D0,ITMDAY^
   487	000370'	000000	000002			X LAST,ITMNM2,0^	XWD ^D0,ITMNM2^
   488	000371'	000000	000021			X END,ITMEND,0^	XWD ^D0,ITMEND^
   489	000372'	000002	000001			X OTHER,ITMNM1,2^	XWD ^D2,ITMNM1^
   490	000373'	000000	000017			X BEFORE,ITMBEF,0^	XWD ^D0,ITMBEF^
   491	000374'	000000	000020			X AFTER,ITMAFT,0^	XWD ^D0,ITMAFT^
   492	000375'	000001	000000			X FIRST,ITMNUM,1^	XWD ^D1,ITMNUM^
   493	000376'	000002	000000			X SECOND,ITMNUM,2^	XWD ^D2,ITMNUM^
   494	000377'	000003	000000			X THIRD,ITMNUM,3^	XWD ^D3,ITMNUM^
   495	000400'	000004	000000			X FOURTH,ITMNUM,4^	XWD ^D4,ITMNUM^
   496	000401'	000005	000000			X FIFTH,ITMNUM,5^	XWD ^D5,ITMNUM^
   497	000402'	000006	000000			X SIXTH,ITMNUM,6^	XWD ^D6,ITMNUM^
   498	000403'	000007	000000			X SEVENTH,ITMNUM,7^	XWD ^D7,ITMNUM^
RCDATE - COMMON DATE STUFF FOR REMIND AND SEC	MACRO 12.5-46.0 21:52  2-MAR-81 PAGE 4-6
RCDATE.MAC	19-JUN-78 15:07	

   499	000404'	000010	000000			X EIGHTH,ITMNUM,8^	XWD ^D8,ITMNUM^
   500	000405'	000011	000000			X NINTH,ITMNUM,9^	XWD ^D9,ITMNUM^
   501	000406'	000012	000000			X TENTH,ITMNUM,10^	XWD ^D10,ITMNUM^
   502	000407'	000013	000000			X ELEVENTH,ITMNUM,11^	XWD ^D11,ITMNUM^
   503	000410'	000014	000000			X TWELFTH,ITMNUM,12^	XWD ^D12,ITMNUM^
   504	000411'	000015	000000			X THIRTEENTH,ITMNUM,13^	XWD ^D13,ITMNUM^
   505	000412'	000016	000000			X FOURTEENTH,ITMNUM,14^	XWD ^D14,ITMNUM^
   506	000413'	000017	000000			X FIFTEENTH,ITMNUM,15^	XWD ^D15,ITMNUM^
   507	000414'	000020	000000			X SIXTEENTH,ITMNUM,16^	XWD ^D16,ITMNUM^
   508	000415'	000021	000000			X SEVENTEENTH,ITMNUM,17^	XWD ^D17,ITMNUM^
   509	000416'	000022	000000			X EIGHTEENTH,ITMNUM,18^	XWD ^D18,ITMNUM^
   510	000417'	000023	000000			X NINETEENTH,ITMNUM,19^	XWD ^D19,ITMNUM^
   511	000420'	000024	000000			X TWENTIETH,ITMNUM,20^	XWD ^D20,ITMNUM^
   512	000421'	000025	000000			X TWENTYFIRST,ITMNUM,21^	XWD ^D21,ITMNUM^
   513	000422'	000026	000000			X TWENTYSECOND,ITMNUM,22^	XWD ^D22,ITMNUM^
   514	000423'	000027	000000			X TWENTYTHIRD,ITMNUM,23^	XWD ^D23,ITMNUM^
   515	000424'	000030	000000			X TWENTYFOURTH,ITMNUM,24^	XWD ^D24,ITMNUM^
   516	000425'	000031	000000			X TWENTYFIFTH,ITMNUM,25^	XWD ^D25,ITMNUM^
   517	000426'	000032	000000			X TWENTYSIXTH,ITMNUM,26^	XWD ^D26,ITMNUM^
   518	000427'	000033	000000			X TWENTYSEVENTH,ITMNUM,27^	XWD ^D27,ITMNUM^
   519	000430'	000034	000000			X TWENTYEIGHTH,ITMNUM,28^	XWD ^D28,ITMNUM^
   520	000431'	000035	000000			X TWENTYNINTH,ITMNUM,29^	XWD ^D29,ITMNUM^
   521	000432'	000036	000000			X THIRTIETH,ITMNUM,30^	XWD ^D30,ITMNUM^
   522	000433'	000037	000000			X THIRTYFIRST,ITMNUM,31^	XWD ^D31,ITMNUM^^
   523			000107	00060	DWDLN==.-DWDLN
   524
   525			000000'	00080	WKDPTR==DWDTB
   526			000007'	00090	MONPTR==DWDTB+7
   527
   528		777777	777671	00110	MDWDLN==-DWDLN
   529			000325	00120	DWDLN3==DWDLN*3
RCDATE - COMMON DATE STUFF FOR REMIND AND SEC	MACRO 12.5-46.0 21:52  2-MAR-81 PAGE 5
RCDATE.MAC	19-JUN-78 15:07	

   530	000434'	200040	002437'	00010	YDCNV:	MOVE T1,YEAR#
   531	000435'	301040	003554	00020		CAIL T1,^D1900
   532	000436'	275040	003554	00030		SUBI T1,^D1900
   533	000437'	275040	000100	00040		SUBI T1,^D64
   534	000440'	321040	000000*	00050		JUMPL T1,CPOPJ
   535	000441'	200100	000001	00060		MOVE T2,T1
   536	000442'	405100	000003	00070		ANDI T2,3
   537	000443'	202100	002421'	00080		MOVEM T2,LEAP#	;FLAG FOR LEAP YEARS
   538	000444'	201100	000555	00090		MOVEI T2,^D365
   539	000445'	220100	000001	00100		IMUL T2,T1
   540	000446'	271040	000003	00110		ADDI T1,3
   541	000447'	242040	777776	00120		LSH T1,-2
   542	000450'	270040	000002	00130		ADD T1,T2	;COMPENSATE FOR LEAP YEARS
   543	000451'	200100	002422'	00140		MOVE T2,MONTH#
   544	000452'	303100	000014	00150		CAILE T2,^D12
   545	000453'	263740	000000	00160		POPJ P,
   546	000454'	270042	000472'	00170		ADD T1,MONTAB-1(T2)
   547	000455'	303100	000002	00180		CAILE T2,2
   548	000456'	332000	002421'	00190		SKIPE LEAP
   549	000457'	334000	000000	00200		SKIPA
   550	000460'	271040	000001	00210		ADDI T1,1
   551	000461'	200140	002417'	00220		MOVE T3,DAY#
   552	000462'	271043	777777	00230		ADDI T1,-1(T3)
   553	000463'	317142	000524'	00240		CAMG T3,MONDAY-1(T2)
   554	000464'	254000	000000*	00250		JRST CPOPJ1
   555	000465'	306100	000002	00260		CAIN T2,2
   556	000466'	332000	002421'	00270		SKIPE LEAP	;WORRY ABOUT FEB 29
   557	000467'	263740	000000	00280		POPJ P,
   558	000470'	306140	000035	00290		CAIN T3,^D29
   559	000471'	350017	000000	00300		AOS (P)
   560	000472'	263740	000000	00310		POPJ P,
   561
   562				00330		DEFINE MSIZE
   563				00340	<X <31,28,31,30,31,30,31,31,30,31,30,31>>
   564
   565				00360		DEFINE X (A)
   566				00370	<ZZ==0
   567				00380	IRP A,<	ZZ==ZZ+^D'A
   568				00390		ZZ>>
   569
   570	000473'	000000	000000	00410	MONTAB:	0
   571			000000	00420		MSIZE^X <31,28,31,30,31,30,31,31,30,31,30,31>^ZZ==0
   572	000474'	000000	000037			ZZ
   573	000475'	000000	000073			ZZ
   574	000476'	000000	000132			ZZ
   575	000477'	000000	000170			ZZ
   576	000500'	000000	000227			ZZ
   577	000501'	000000	000265			ZZ
   578	000502'	000000	000324			ZZ
   579	000503'	000000	000363			ZZ
   580	000504'	000000	000421			ZZ
   581	000505'	000000	000460			ZZ
   582	000506'	000000	000516			ZZ
RCDATE - COMMON DATE STUFF FOR REMIND AND SEC	MACRO 12.5-46.0 21:52  2-MAR-81 PAGE 5-2
RCDATE.MAC	19-JUN-78 15:07	

   583	000507'	000000	000555			ZZ
   584
   585	000510'	000000	000000	00440	MONTB2:	0
   586			000000	00450		X <31,29,31,30,31,30,31,31,30,31,30,31>^ZZ==0
   587	000511'	000000	000037			ZZ
   588	000512'	000000	000074			ZZ
   589	000513'	000000	000133			ZZ
   590	000514'	000000	000171			ZZ
   591	000515'	000000	000230			ZZ
   592	000516'	000000	000266			ZZ
   593	000517'	000000	000325			ZZ
   594	000520'	000000	000364			ZZ
   595	000521'	000000	000422			ZZ
   596	000522'	000000	000461			ZZ
   597	000523'	000000	000517			ZZ
   598	000524'	000000	000556			ZZ
   599
   600				00470		DEFINE X(A)
   601				00480	<IRP A,<^D'A>>
   602
   603	000525'			00500	MONDAY:	MSIZE^X <31,28,31,30,31,30,31,31,30,31,30,31>^IRP 
   604	000525'	000000	000037		^D31
   605	000526'	000000	000034		^D28
   606	000527'	000000	000037		^D31
   607	000530'	000000	000036		^D30
   608	000531'	000000	000037		^D31
   609	000532'	000000	000036		^D30
   610	000533'	000000	000037		^D31
   611	000534'	000000	000037		^D31
   612	000535'	000000	000036		^D30
   613	000536'	000000	000037		^D31
   614	000537'	000000	000036		^D30
   615	000540'	000000	000037		^D31
   616
RCDATE - COMMON DATE STUFF FOR REMIND AND SEC	MACRO 12.5-46.0 21:52  2-MAR-81 PAGE 6
RCDATE.MAC	19-JUN-78 15:07	

   617	000541'	047040	000014	00010	GENTDY:	DATE T1,
   618	000542'	231040	000037	00020		IDIVI T1,^D31
   619	000543'	271100	000001	00030		ADDI T2,1
   620	000544'	202100	002417'	00040		MOVEM T2,DAY
   621	000545'	231040	000014	00050		IDIVI T1,^D12
   622	000546'	271100	000001	00060		ADDI T2,1
   623	000547'	202100	002422'	00070		MOVEM T2,MONTH
   624	000550'	271040	000100	00080		ADDI T1,^D64
   625	000551'	202040	002437'	00090		MOVEM T1,YEAR
   626	000552'	260740	000434'	00100		PUSHJ P,YDCNV
   627	000553'	254000	000724'	00110		 JRST SYSERR
   628	000554'	263740	000000	00120		POPJ P,
RCDATE - COMMON DATE STUFF FOR REMIND AND SEC	MACRO 12.5-46.0 21:52  2-MAR-81 PAGE 7
RCDATE.MAC	19-JUN-78 15:07	

   629	000555'	261740	000001	00010	PRDAT1:	PUSH P,T1	;SAVE DATE (FOR GETTING WEEKDAY
   630	000556'	260740	000602'	00020		PUSHJ P,BREAK	;BREAK IT UP
   631	000557'	200140	002422'	00030		MOVE T3,MONTH	;GET THE MONTH
   632	000560'	270140	002440'	00040		ADD T3,[XWD -DWDLN,MONPTR-1]
   633	000561'	260740	000000*	00050		PUSHJ P,OUTSIX
   634	000562'	051700	000040	00060		OUTCHI " "
   635	000563'	200140	002417'	00070		MOVE T3,DAY
   636	000564'	260740	000000*	00080		PUSHJ P,OUTNUM
   637	000565'	051700	000054	00085		OUTCHI	","
   638	000566'	200140	002437'	00100		MOVE T3,YEAR
   639	000567'	271140	003554	00110		ADDI T3,^D1900
   640	000570'	260740	000564*	00120		PUSHJ P,OUTNUM
   641	000571'	262740	000001	00130		POP P,T1
   642	000572'	263740	000000	00140		POPJ P,
   643
   644	000573'	260740	000555'	00160	PRDAT:	PUSHJ P,PRDAT1
   645	000574'	051040	002441'	00170		OUTCHR [" "]
   646	000575'	271040	000003	00180		ADDI T1,3
   647	000576'	231040	000007	00190		IDIVI T1,7
   648	000577'	200140	000002	00200		MOVE T3,T2
   649	000600'	270140	002442'	00210		ADD T3,[XWD -DWDLN,WKDPTR]
   650	000601'	254000	000561*	00220		JRST OUTSIX
RCDATE - COMMON DATE STUFF FOR REMIND AND SEC	MACRO 12.5-46.0 21:52  2-MAR-81 PAGE 8
RCDATE.MAC	19-JUN-78 15:07	

   651				00010	;BREAK UP A DATE
   652
   653	000602'	231040	002665	00030	BREAK:	IDIVI T1,^D<365*4+1>	;NUMBER OF LEAP YEARS
   654	000603'	221040	000004	00040		IMULI T1,4
   655	000604'	271040	000100	00050		ADDI T1,^D64
   656	000605'	202040	002437'	00060		MOVEM T1,YEAR
   657	000606'	200040	000002	00070		MOVE T1,T2
   658	000607'	305040	000556	00080		CAIGE T1,^D366
   659	000610'	254000	000617'	00090		JRST BREAK1	;T2 STILL HAS NUMBER. ITS A LEAP YEAR
   660	000611'	275040	000556	00100		SUBI T1,^D366	;GET TO NEXT YEAR
   661	000612'	350000	002437'	00110		AOS YEAR
   662	000613'	231040	000555	00120		IDIVI T1,^D365
   663	000614'	272040	002437'	00130		ADDM T1,YEAR
   664	000615'	201140	000474'	00140		MOVEI T3,MONTAB+1
   665	000616'	334000	000000	00150		SKIPA
   666	000617'	201140	000511'	00160	BREAK1:	MOVEI T3,MONTB2+1
   667	000620'	505140	000001	00170		HRLI T3,T1
   668	000621'	205040	777764	00180		MOVSI T1,-^D12
   669	000622'	311120	000003	00190		CAML T2,@T3	;FIND CORRECT MONTH
   670	000623'	253040	000622'	00200		AOBJN T1,.-1
   671	000624'	552040	002422'	00210		HRRZM T1,MONTH
   672	000625'	350000	002422'	00220		AOS MONTH
   673	000626'	275140	000001	00230		SUBI T3,1
   674	000627'	274120	000003	00240		SUB T2,@T3
   675	000630'	271100	000001	00250		ADDI T2,1
   676	000631'	202100	002417'	00260		MOVEM T2,DAY
   677	000632'	263740	000000	00270		POPJ P,
   678
   679	000633'	261740	000001	00290	GETNUM:	PUSH P,T1
   680	000634'	261740	000002	00300		PUSH P,T2
   681	000635'	201100	000000	00310		MOVEI T2,0
   682	000636'	201300	000000	00320		MOVEI CODE,0
   683	000637'	134040	000011	00330	GTNM1:	ILDB T1,DPTR
   684	000640'	626040	000020	00340		TRZN T1,20
   685	000641'	254000	000646'	00350		JRST GTNMFN	;LAST PART
   686	000642'	241300	777774	00360		ROT CODE,-4
   687	000643'	271100	000004	00370		ADDI T2,4	;SAVE UP AMOUNT TO REROTATE
   688	000644'	434300	000001	00380		IOR CODE,T1
   689	000645'	254000	000637'	00390		JRST GTNM1
   690	000646'	241300	777774	00400	GTNMFN:	ROT CODE,-4
   691	000647'	434300	000001	00410		IOR CODE,T1
   692	000650'	241302	000000	00420		ROT CODE,(T2)
   693	000651'	262740	000002	00430		POP P,T2
   694	000652'	262740	000001	00440		POP P,T1
   695	000653'	263740	000000	00450		POPJ P,
RCDATE - COMMON DATE STUFF FOR REMIND AND SEC	MACRO 12.5-46.0 21:52  2-MAR-81 PAGE 9
RCDATE.MAC	19-JUN-78 15:07	

   696	000654'	201040	001750	00010	GENDAT:	MOVEI T1,^D1000
   697	000655'	202040	002436'	00020		MOVEM T1,XCPCNT#	;SAVE A COUNTER FOR EXCEPT TRYS
   698	000656'	200040	002416'	00030		MOVE T1,DATREF
   699	000657'	202040	002424'	00040		MOVEM T1,REFRN0#	;THING TO RESET FROM ON EXCEPT
   700	000660'	200040	002423'	00050		MOVE T1,MTARG#		;FAILURE
   701	000661'	202040	002427'	00060		MOVEM T1,STRTN0#
   702	000662'	201040	777777	00070		MOVEI T1,-1
   703	000663'	202040	002434'	00080		MOVEM T1,UNTDT0#
   704	000664'	200440	002431'	00090	GENDT2:	MOVE DPTR,SVDPTR#
   705	000665'	200040	002424'	00100		MOVE T1,REFRN0
   706	000666'	202040	002425'	00110		MOVEM T1,REFRNC#
   707	000667'	200040	002427'	00120		MOVE T1,STRTN0
   708	000670'	202040	002430'	00130		MOVEM T1,STRTNG#
   709	000671'	200040	002434'	00140		MOVE T1,UNTDT0
   710	000672'	202040	002435'	00150		MOVEM T1,UNTLDT#
   711	000673'	620000	000140	00160		TRZ FL,FRDATE!FBEF
   712
   713	000674'			00180	GENOR:
   714	000674'	134340	000011	00190	GENDT1:	ILDB ITEM,DPTR
   715	000675'	256007	000676'	00200		XCT GENTAB(ITEM)
   716
   717	000676'	254000	000771'	00220	GENTAB:	JRST GENEND	;END OF DATE
   718	000677'	254000	000746'	00230		JRST GENSUB	;ONE OF THE DATE ELEMENTS
   719	000700'	254000	000746'	00240		JRST GENSUB
   720	000701'	254000	000746'	00250		JRST GENSUB
   721	000702'	254000	000746'	00260		JRST GENSUB
   722	000703'	254000	000746'	00270		JRST GENSUB
   723	000704'	254000	000746'	00280		JRST GENSUB
   724	000705'	254000	000746'	00290		JRST GENSUB
   725	000706'	254000	000746'	00300		JRST GENSUB
   726	000707'	254000	000746'	00310		JRST GENSUB
   727	000710'	254000	000746'	00320		JRST GENSUB
   728	000711'	254000	000674'	00330		JRST GENOR	;OR
   729	000712'	254000	000755'	00340		JRST GENREF	;REFERENCE
   730	000713'	254000	000761'	00350		JRST GENSTR	;STARTING
   731	000714'	254000	000765'	00360		JRST GENUNT	;UNTIL
   732	000715'	254000	000726'	00370		JRST GENFRV	;UNTIL FOREVER
   733	000716'	254000	000775'	00380		JRST GENXCP	;EXCEPT
   734	000717'	254000	001016'	00390		JRST GENBET	;BETWEEN
   735	000720'	254000	000724'	00400		JRST SYSERR	;AND
   736	000721'	254000	000731'	00410		JRST GENRDT	;A REAL DATE
   737	000722'	254000	000746'	00420		JRST GENSUB		;(
   738	000723'	254000	000771'	00430		JRST GENRPR	;)
   739
   740				00450	SYSERR:	OUTSTR [ASCIZ /
   741	000724'	051140	002443'	00460	Error in date generator./]
   742	000725'	047000	000012	00470		EXIT
   743
   744	000726'	201040	777777	00490	GENFRV:	MOVEI T1,-1
   745	000727'	202040	002435'	00500		MOVEM T1,UNTLDT
   746	000730'	254000	000674'	00510		JRST GENDT1
RCDATE - COMMON DATE STUFF FOR REMIND AND SEC	MACRO 12.5-46.0 21:52  2-MAR-81 PAGE 10
RCDATE.MAC	19-JUN-78 15:07	

   747	000731'	260740	000633'	00010	GENRDT:	PUSHJ P,GETNUM	;GET A NUMBER FROM THE STRING
   748	000732'	200040	000006	00020		MOVE T1,CODE
   749	000733'	602000	000100	00030	GENSAV:	TRNE FL,FBEF
   750	000734'	254000	001145'	00040		JRST GENSVB	;SPECIAL CHECKING IF WANT BEFORE
   751	000735'	311040	002423'	00050		CAML T1,MTARG
   752	000736'	315040	002430'	00060		CAMGE T1,STRTNG	;MAKE SURE ITS LATE ENOUGH
   753	000737'	254000	000674'	00070		JRST GENDT1	;NO
   754	000740'	313040	002435'	00080		CAMLE T1,UNTLDT	;AND EARLY ENOUGH
   755	000741'	254000	000674'	00090		JRST GENDT1
   756	000742'	662000	000040	00100		TROE FL,FRDATE		;FLAG AS SEEN
   757	000743'	315040	002420'	00110		CAMGE T1,FNDDAT#	;IF NOT FIRS IS IT EARLIER
   758	000744'	202040	002420'	00120		MOVEM T1,FNDDAT	;FIRST OR EARLIEST
   759	000745'	254000	000674'	00130		JRST GENDT1
   760
   761	000746'	200040	002423'	00150	GENSUB:	MOVE T1,MTARG
   762	000747'	315040	002430'	00160		CAMGE T1,STRTNG	;GET MAX OF 'TODAY' AND STARTING
   763	000750'	200040	002430'	00170		MOVE T1,STRTNG
   764	000751'	202040	002432'	00180		MOVEM T1,TARGET#	;SET TARGET DATE
   765	000752'	260740	001230'	00190		PUSHJ P,SUBDAT
   766	000753'	254000	000674'	00200		 JRST GENDT1	;NO MORE DATES
   767	000754'	254000	000733'	00210		JRST GENSAV	;GO SEE IF REALLY GOOD
   768
   769	000755'	260740	001227'	00230	GENREF:	PUSHJ P,SUBDT1	;SUBDAT BUT WITH ILDB FIRST
   770	000756'	254000	000724'	00240		 JRST SYSERR
   771	000757'	202040	002425'	00250		MOVEM T1,REFRNC
   772	000760'	254000	000674'	00260		JRST GENDT1
   773
   774	000761'	260740	001227'	00280	GENSTR:	PUSHJ P,SUBDT1
   775	000762'	254000	000724'	00290		 JRST SYSERR
   776	000763'	202040	002430'	00300		MOVEM T1,STRTNG
   777	000764'	254000	000674'	00310		JRST GENDT1
   778
   779	000765'	260740	001227'	00330	GENUNT:	PUSHJ P,SUBDT1
   780	000766'	254000	000724'	00340		 JRST SYSERR
   781	000767'	202040	002435'	00350		MOVEM T1,UNTLDT
   782	000770'	254000	000674'	00360		JRST GENDT1
   783
   784	000771'			00380	GENRPR:
   785	000771'	602000	000040	00390	GENEND:	TRNE FL,FRDATE
   786	000772'	350017	000000	00400		AOS (P)
   787	000773'	200040	002420'	00410		MOVE T1,FNDDAT	;RETURN DATE FOUND
   788	000774'	263740	000000	00420		POPJ P,		;SKIP RETURN IF FOUND
   789
   790	000775'	371000	002436'	00440	GENXCP:	SOSL XCPCNT	;TOO MANY?
   791	000776'	626000	000040	00450		TRZN FL,FRDATE	;OR NONE SEEN?
   792	000777'	263740	000000	00460		POPJ P,		;THEN GIVE UP
   793	001000'	620000	000100	00470		TRZ FL,FBEF		;DO NOT NEED THIS ANY MORE
   794	001001'	200040	002420'	00480		MOVE T1,FNDDAT
   795	001002'	261740	000001	00490		PUSH P,T1	;SAVE DATE FOUND
   796	001003'	202040	002423'	00500		MOVEM T1,MTARG	;AND SAVE AS TARGET
   797	001004'	260740	000674'	00510		PUSHJ P,GENDT1
   798	001005'	254000	001013'	00520		 JRST NOXCP	;NO EXCEPTION DATES
   799	001006'	262740	000001	00530		POP P,T1	;RESTORE DATE FOUND
RCDATE - COMMON DATE STUFF FOR REMIND AND SEC	MACRO 12.5-46.0 21:52  2-MAR-81 PAGE 10-2
RCDATE.MAC	19-JUN-78 15:07	

   800	001007'	312040	002420'	00540		CAME T1,FNDDAT	;SAME?
   801	001010'	254000	001014'	00550		JRST NOXCP1	;NO
   802	001011'	350000	002423'	00560		AOS MTARG	;TRY FOR NEXT DAY
   803	001012'	254000	000664'	00570		JRST GENDT2	;RESTART SEARCH
   804
   805	001013'	262740	000001	00590	NOXCP:	POP P,T1
   806	001014'	202040	002420'	00600	NOXCP1:	MOVEM T1,FNDDAT
   807	001015'	254000	000464*	00610		JRST CPOPJ1
RCDATE - COMMON DATE STUFF FOR REMIND AND SEC	MACRO 12.5-46.0 21:52  2-MAR-81 PAGE 11
RCDATE.MAC	19-JUN-78 15:07	

   808	001016'	261740	002407'	00010	GENBET:	PUSH P,BETCNT#	;COUNTER TO PREVENT LOOPS
   809	001017'	201040	001750	00020		MOVEI T1,^D1000
   810	001020'	202040	002407'	00030		MOVEM T1,BETCNT
   811	001021'	261740	002411'	00040		PUSH P,BETPTR#	;POINTER TO START OF BETWEEN STRING
   812	001022'	202440	002411'	00050		MOVEM DPTR,BETPTR
   813	001023'	261740	002412'	00060		PUSH P,BETSTR#	;STARTING DATE OF PAIR
   814	001024'	261740	002410'	00070		PUSH P,BETEND#	;ENDING DATE OF PAIR
   815	001025'	660000	000100	00080		TRO FL,FBEF
   816	001026'	200040	002430'	00090		MOVE T1,STRTNG
   817	001027'	315040	002423'	00100		CAMGE T1,MTARG
   818	001030'	200040	002423'	00110		MOVE T1,MTARG
   819	001031'	271040	000001	00120		ADDI T1,1	;FIND FIRST DATE OF INTEREST
   820	001032'	202040	002432'	00130		MOVEM T1,TARGET
   821	001033'	476000	002412'	00140		SETOM BETSTR	;FOR A CHECK LATER
   822	001034'	261740	002430'	00150		PUSH P,STRTNG
   823	001035'	211040	777777	00160		MOVNI T1,-1	;A VERY LARGE NEG NUMBER
   824	001036'	202040	002430'	00170		MOVEM T1,STRTNG
   825	001037'	260740	001227'	00180	BETCOM:	PUSHJ P,SUBDT1	;GET A DATE
   826	001040'	254000	001133'	00190		 JRST BETRY0	;NONE, NEVER WILL BE ANY
   827	001041'	311040	002412'	00200		CAML T1,BETSTR	;IS IT LATER THAN PREVIOUS (SEE BETRTY)
   828	001042'	313040	002435'	00210		CAMLE T1,UNTLDT	;IS IT SOON ENOUGH
   829	001043'	254000	001110'	00220		JRST BETABT	;NO, GIVE UP
   830	001044'	202040	002412'	00230		MOVEM T1,BETSTR
   831	001045'	202040	002432'	00240		MOVEM T1,TARGET
   832	001046'	202040	002430'	00250		MOVEM T1,STRTNG
   833	001047'	620000	000100	00260		TRZ FL,FBEF
   834	001050'	133000	000011	00270		IBP DPTR	;SKIP THE AND
   835	001051'	260740	001227'	00280		PUSHJ P,SUBDT1	;FIND ENDING DATE AFTER STARTING
   836	001052'	254000	001142'	00290		 JRST BETRY1	;NONE, GIVE UP
   837	001053'	315040	002412'	00300		CAMGE T1,BETSTR	;MUST BE AFTER OR EQUAL TO START
   838	001054'	254000	001114'	00310		JRST BETAB1
   839	001055'	200117	000000	00320		MOVE T2,(P)
   840	001056'	202100	002430'	00330		MOVEM T2,STRTNG
   841	001057'	311040	002430'	00340		CAML T1,STRTNG
   842	001060'	315040	002423'	00350		CAMGE T1,MTARG	;END AT LEAST MUST BE IN RANGE
   843	001061'	254000	001124'	00360		JRST BETRTY	;RETRY
   844	001062'	202040	002410'	00370		MOVEM T1,BETEND
   845	001063'	200040	002412'	00380		MOVE T1,BETSTR
   846	001064'	315040	002430'	00390		CAMGE T1,STRTNG
   847	001065'	200040	002430'	00400		MOVE T1,STRTNG
   848	001066'	315040	002423'	00410		CAMGE T1,MTARG
   849	001067'	200040	002423'	00420		MOVE T1,MTARG	;GET LASTES OF ALL 3
   850	001070'	202040	002432'	00430		MOVEM T1,TARGET
   851	001071'	260740	001227'	00440		PUSHJ P,SUBDT1	;NOW GET THE FINAL DATE
   852	001072'	254000	001124'	00450		 JRST BETRTY	;NONE
   853	001073'	311040	002430'	00460		CAML T1,STRTNG
   854	001074'	315040	002423'	00470		CAMGE T1,MTARG
   855	001075'	254000	001116'	00480		JRST BETAB2	;WILL NEVER GET A GOOD ONE
   856	001076'	315040	002412'	00490		CAMGE T1,BETSTR
   857	001077'	254000	001116'	00500		JRST BETAB2	;SAME STORY
   858	001100'	313040	002410'	00510		CAMLE T1,BETEND
   859	001101'	254000	001124'	00520		JRST BETRTY	;TOO LATE, RETRY
   860	001102'	262740	002430'	00530		POP P,STRTNG
RCDATE - COMMON DATE STUFF FOR REMIND AND SEC	MACRO 12.5-46.0 21:52  2-MAR-81 PAGE 11-2
RCDATE.MAC	19-JUN-78 15:07	

   861	001103'	262740	002410'	00540		POP P,BETEND
   862	001104'	262740	002412'	00550		POP P,BETSTR
   863	001105'	262740	002411'	00560		POP P,BETPTR
   864	001106'	262740	002407'	00570		POP P,BETCNT
   865	001107'	254000	000733'	00580		JRST GENSAV	;GO PUT DATE AWAY
RCDATE - COMMON DATE STUFF FOR REMIND AND SEC	MACRO 12.5-46.0 21:52  2-MAR-81 PAGE 12
RCDATE.MAC	19-JUN-78 15:07	

   866	001110'	620000	000100	00010	BETABT:	TRZ FL,FBEF
   867	001111'	133000	000011	00020		IBP DPTR	;SKIP AND
   868	001112'	260740	001227'	00030		PUSHJ P,SUBDT1
   869	001113'	255000	000000	00040		 JFCL	;JUST USING IT TO ADVANCE POINTER
   870	001114'	260740	001227'	00050	BETAB1:	PUSHJ P,SUBDT1
   871	001115'	255000	000000	00060		 JFCL
   872	001116'	262740	002430'	00070	BETAB2:	POP P,STRTNG
   873	001117'	262740	002410'	00080		POP P,BETEND
   874	001120'	262740	002412'	00090		POP P,BETSTR
   875	001121'	262740	002411'	00100		POP P,BETPTR
   876	001122'	262740	002407'	00110		POP P,BETCNT
   877	001123'	254000	000674'	00120		JRST GENDT1
   878
   879	001124'	375000	002407'	00140	BETRTY:	SOSGE BETCNT
   880	001125'	254000	001116'	00150		JRST BETAB2	;GIVE UP IF TOO MANY TIMES
   881	001126'	350040	002412'	00160	BETRYC:	AOS T1,BETSTR
   882	001127'	202040	002432'	00170		MOVEM T1,TARGET	;WILL FIND NEXT STARTING DATE
   883	001130'	202040	002430'	00180		MOVEM T1,STRTNG
   884	001131'	200440	002411'	00190		MOVE DPTR,BETPTR
   885	001132'	254000	001037'	00200		JRST BETCOM
   886
   887	001133'	375000	002407'	00220	BETRY0:	SOSGE BETCNT
   888	001134'	254000	001110'	00230		JRST BETABT
   889	001135'	620000	000100	00240		TRZ FL,FBEF
   890	001136'	200040	002423'	00250		MOVE T1,MTARG
   891	001137'	275040	000001	00260		SUBI T1,1
   892	001140'	202040	002412'	00270		MOVEM T1,BETSTR		;MAKE SURE WE START CORRECTLY
   893	001141'	254000	001126'	00280		JRST BETRYC
   894
   895	001142'	375000	002407'	00300	BETRY1:	SOSGE BETCNT
   896	001143'	254000	001114'	00310		JRST BETAB1
   897	001144'	254000	001126'	00320		JRST BETRYC
   898
   899	001145'	315040	002423'	00340	GENSVB:	CAMGE T1,MTARG
   900	001146'	313040	002435'	00350		CAMLE T1,UNTLDT
   901	001147'	254000	000674'	00360		JRST GENDT1	;THIS IS USED ONLY WITH BETWEEN
   902	001150'	315040	002430'	00370		CAMGE T1,STRTNG
   903	001151'	254000	000674'	00380		JRST GENDT1
   904	001152'	662000	000040	00390		TROE FL,FRDATE
   905	001153'	313040	002420'	00400		CAMLE T1,FNDDAT
   906	001154'	202040	002420'	00410		MOVEM T1,FNDDAT
   907	001155'	254000	000674'	00420		JRST GENDT1
RCDATE - COMMON DATE STUFF FOR REMIND AND SEC	MACRO 12.5-46.0 21:52  2-MAR-81 PAGE 13
RCDATE.MAC	19-JUN-78 15:07	

   908	001156'	261740	002436'	00010	SUBLPR:	PUSH P,XCPCNT
   909	001157'	201040	001750	00020		MOVEI T1,^D1000
   910	001160'	202040	002436'	00030		MOVEM T1,XCPCNT		;RESET IN CASE OF NESTED EXCEPTS
   911	001161'	261740	002420'	00040		PUSH P,FNDDAT
   912	001162'	261740	000000	00050		PUSH P,FL
   913	001163'	620000	000040	00060		TRZ FL,FRDATE
   914	001164'	261740	002425'	00070		PUSH P,REFRNC
   915	001165'	261740	002424'	00080		PUSH P,REFRN0
   916	001166'	200040	002425'	00090		MOVE T1,REFRNC
   917	001167'	202040	002424'	00100		MOVEM T1,REFRN0
   918	001170'	261740	002430'	00110		PUSH P,STRTNG
   919	001171'	261740	002427'	00120		PUSH P,STRTN0
   920	001172'	200040	002430'	00130		MOVE T1,STRTNG
   921	001173'	202040	002427'	00140		MOVEM T1,STRTN0
   922	001174'	261740	002435'	00150		PUSH P,UNTLDT
   923	001175'	261740	002434'	00160		PUSH P,UNTDT0
   924	001176'	200040	002435'	00170		MOVE T1,UNTLDT
   925	001177'	202040	002434'	00180		MOVEM T1,UNTDT0
   926	001200'	261740	002431'	00190		PUSH P,SVDPTR
   927	001201'	202440	002431'	00200		MOVEM DPTR,SVDPTR
   928	001202'	261740	002432'	00210		PUSH P,TARGET
   929	001203'	261740	002423'	00220		PUSH P,MTARG
   930	001204'	200040	002432'	00230		MOVE T1,TARGET
   931	001205'	202040	002423'	00240		MOVEM T1,MTARG
   932	001206'	260740	000674'	00250		PUSHJ P,GENDT1	;GO GENERATE A DATE
   933	001207'	334000	000000	00260		 SKIPA
   934	001210'	350017	777764	00270		AOS -14(P)	;SET FOR SKIP RETURN
   935	001211'	262740	002423'	00280		POP P,MTARG
   936	001212'	262740	002432'	00290		POP P,TARGET
   937	001213'	262740	002431'	00300		POP P,SVDPTR
   938	001214'	262740	002434'	00310		POP P,UNTDT0
   939	001215'	262740	002435'	00320		POP P,UNTLDT
   940	001216'	262740	002427'	00330		POP P,STRTN0
   941	001217'	262740	002430'	00340		POP P,STRTNG
   942	001220'	262740	002424'	00350		POP P,REFRN0
   943	001221'	262740	002425'	00360		POP P,REFRNC
   944	001222'	262740	000000	00370		POP P,FL
   945	001223'	200040	002420'	00380		MOVE T1,FNDDAT	;GET THE DATE FOUND IF THERE IS ONE
   946	001224'	262740	002420'	00390		POP P,FNDDAT
   947	001225'	262740	002436'	00400		POP P,XCPCNT
   948	001226'	263740	000000	00410		POPJ P,
RCDATE - COMMON DATE STUFF FOR REMIND AND SEC	MACRO 12.5-46.0 21:52  2-MAR-81 PAGE 14
RCDATE.MAC	19-JUN-78 15:07	

   949	001227'	134340	000011	00010	SUBDT1:	ILDB ITEM,DPTR
   950	001230'	256007	001231'	00020	SUBDAT:	XCT SUBTAB(ITEM)
   951
   952	001231'	254000	000724'	00040	SUBTAB:	JRST SYSERR	;END
   953	001232'	254000	001276'	00050		JRST SUBDOW	;EVERY WED
   954	001233'	254000	001262'	00060		JRST SUBDAY	;EVERY 5 DAYS
   955	001234'	254000	001626'	00070		JRST SUBMDW	;4TH TUE OF MONTH
   956	001235'	254000	001567'	00080		JRST SUBLDW	;LAST TUE OF MONTH
   957	001236'	254000	001407'	00090		JRST SUBMDY	;25TH OF MONTH
   958	001237'	254000	001544'	00100		JRST SUBLDY	;LAST DAY OF MONTH
   959	001240'	254000	001777'	00110		JRST SUBDBF	;3 DAYS BEFORE
   960	001241'	254000	002004'	00120		JRST SUBDAF	;3 DAYS AFTER
   961	001242'	254000	002030'	00130		JRST SUBWBF	;WED BEFORE
   962	001243'	254000	002013'	00140		JRST SUBWAF	;WED AFTER
   963	001244'	254000	000724'	00150		JRST SYSERR	;OR
   964	001245'	254000	000724'	00160		JRST SYSERR	;REFERENCE
   965	001246'	254000	000724'	00170		JRST SYSERR	;STARTING
   966	001247'	254000	000724'	00180		JRST SYSERR	;UNTIL
   967	001250'	254000	000724'	00190		JRST SYSERR	;UNTIL FOREVER
   968	001251'	254000	000724'	00200		JRST SYSERR	;EXCEPT
   969	001252'	254000	000724'	00210		JRST SYSERR	;BETWEEN
   970	001253'	254000	000724'	00220		JRST SYSERR	;AND
   971	001254'	254000	001257'	00230		JRST SUBRDT	;A DATE NUMBER
   972	001255'	254000	001156'	00240		JRST SUBLPR
   973	001256'	254000	000724'	00250		JRST SYSERR
   974
   975	001257'	260740	000633'	00270	SUBRDT:	PUSHJ P,GETNUM
   976	001260'	200040	000006	00280		MOVE T1,CODE
   977	001261'	254000	001015*	00290		JRST CPOPJ1
RCDATE - COMMON DATE STUFF FOR REMIND AND SEC	MACRO 12.5-46.0 21:52  2-MAR-81 PAGE 15
RCDATE.MAC	19-JUN-78 15:07	

   978	001262'	200100	002425'	00010	SUBDAY:	MOVE T2,REFRNC
   979	001263'	260740	000633'	00020		PUSHJ P,GETNUM	;GET INTERVAL
   980	001264'	200040	002432'	00030	SUBDYC:	MOVE T1,TARGET
   981	001265'	274040	000002	00040		SUB T1,T2
   982	001266'	230040	000006	00050		IDIV T1,CODE
   983	001267'	333000	000002	00060		SKIPLE T2
   984	001270'	274100	000006	00070		SUB T2,CODE
   985	001271'	200040	002432'	00080		MOVE T1,TARGET
   986	001272'	274040	000002	00090		SUB T1,T2
   987	001273'	602000	000100	00100		TRNE FL,FBEF
   988	001274'	274040	000006	00110		SUB T1,CODE	;A CYCLE BEFORE IF BETWEEN ARGUMENT
   989	001275'	254000	001261*	00120		JRST CPOPJ1
   990
   991	001276'	260740	000633'	00140	SUBDOW:	PUSHJ P,GETNUM	;GET INTERVAL
   992	001277'	261740	000006	00150		PUSH P,CODE
   993	001300'	134300	000011	00160		ILDB CODE,DPTR	;GET THE DAY OF WEEK
   994	001301'	200040	002425'	00170		MOVE T1,REFRNC
   995	001302'	260740	001311'	00180		PUSHJ P,DOWAFN	;FIND DAY AFTER OR =
   996	001303'	200117	000000	00190		MOVE T2,(P)
   997	001304'	221100	000007	00200		IMULI T2,7	;GET IN CORRECT STEP
   998	001305'	271101	777771	00210		ADDI T2,-7(T1)	;NOW HAVE THE CORRECT REFERENCE DATE
   999	001306'	262740	000006	00220		POP P,CODE	;INTERVAL
  1000	001307'	221300	000007	00230		IMULI CODE,7	;SET TO THAT MANY WEEKS
  1001	001310'	254000	001264'	00240		JRST SUBDYC	;AND GO DO INTERVAL CALC
  1002
  1003	001311'	271040	000001	00260	DOWAFN:	ADDI T1,1	;AFTER AN NOT =
  1004	001312'	261740	000001	00270	DOWAFE:	PUSH P,T1	;AFTER OR =
  1005	001313'	271040	000003	00280		ADDI T1,3	;CORRECT FOR FACT THAT DAY 0 IS WED
  1006	001314'	231040	000007	00290		IDIVI T1,7
  1007	001315'	274100	000006	00300		SUB T2,CODE
  1008	001316'	333000	000002	00310		SKIPLE T2
  1009	001317'	275100	000007	00320		SUBI T2,7	;IN CASE WE WANT EARLIER
  1010	001320'	262740	000001	00330		POP P,T1
  1011	001321'	274040	000002	00340		SUB T1,T2	;GET PROPER DAY
  1012	001322'	263740	000000	00350		POPJ P,
  1013
  1014	001323'	271040	000001	00370	DOWBFE:	ADDI T1,1	;DAY OF WEEK BEFORE OR =
  1015	001324'	261740	000001	00380	DOWBFN:	PUSH P,T1	;BEFORE AND NOT =
  1016	001325'	271040	000003	00390		ADDI T1,3
  1017	001326'	231040	000007	00400		IDIVI T1,7
  1018	001327'	274100	000006	00410		SUB T2,CODE
  1019	001330'	337000	000002	00420		SKIPG T2
  1020	001331'	271100	000007	00430		ADDI T2,7
  1021	001332'	262740	000001	00440		POP P,T1
  1022	001333'	274040	000002	00450		SUB T1,T2
  1023	001334'	263740	000000	00460		POPJ P,
RCDATE - COMMON DATE STUFF FOR REMIND AND SEC	MACRO 12.5-46.0 21:52  2-MAR-81 PAGE 16
RCDATE.MAC	19-JUN-78 15:07	

  1024	001335'	261740	000001	00010	SETMON:	PUSH P,T1	;FIND A MONTH N MONTHS FROM REF DATE
  1025	001336'	200040	002425'	00020		MOVE T1,REFRNC	;BUT AFTER OR = MONTH OF DATE IN T1
  1026	001337'	260740	000602'	00030		PUSHJ P,BREAK
  1027	001340'	200040	002422'	00040		MOVE T1,MONTH	;SAVE MONTH AND YEAR OF REFERENCE
  1028	001341'	250057	000000	00050		EXCH T1,(P)	;RESTORE 'CURRENT' DATE
  1029	001342'	261740	002437'	00060		PUSH P,YEAR
  1030	001343'	260740	000602'	00070		PUSHJ P,BREAK
  1031	001344'	200040	002422'	00080		MOVE T1,MONTH
  1032	001345'	202040	002413'	00090		MOVEM T1,CURMON#	;SAVE CURRENT MONTH FOR LATER
  1033	001346'	200040	002437'	00100		MOVE T1,YEAR
  1034	001347'	202040	002414'	00110		MOVEM T1,CURYR#	;YEAR ALSO
  1035	001350'	262740	000002	00120		POP P,T2
  1036	001351'	274040	000002	00130		SUB T1,T2	;DIFFERENCE IN YEARS
  1037	001352'	221040	000014	00140		IMULI T1,^D12
  1038	001353'	270040	002422'	00150		ADD T1,MONTH
  1039	001354'	262740	000002	00160		POP P,T2
  1040	001355'	274040	000002	00170		SUB T1,T2	;NOW HAVE DIFFERENCE IN MMNTHS
  1041	001356'	230040	000006	00180		IDIV T1,CODE
  1042	001357'	210040	000002	00190		MOVN T1,T2
  1043	001360'	332000	000001	00200		SKIPE T1
  1044	001361'	602000	000100	00210		TRNE FL,FBEF
  1045	001362'	334000	000000	00220		SKIPA		;IF WANT BEFORE OR 0 REMAINDER
  1046	001363'	270040	000006	00230		ADD T1,CODE	;DON'T ADD IN EXTRA CYCLE
  1047
  1048	001364'	273040	002422'	00250	ADJUST:	ADDB T1,MONTH	;CHANGE MONTH
  1049	001365'	323040	001373'	00260		JUMPLE T1,MONMIN	;MONTH HAS GOTTEN TOO SMALL
  1050	001366'	307040	000014	00270		CAIG T1,^D12
  1051	001367'	263740	000000	00280		POPJ P,		;OK
  1052	001370'	350000	002437'	00290		AOS YEAR	;TOO LARGE
  1053	001371'	211040	000014	00300		MOVNI T1,^D12	;SO MAKE IT SMALLER
  1054	001372'	254000	001364'	00310		JRST ADJUST	;AND REPEAT CYCLE
  1055
  1056	001373'	370000	002437'	00330	MONMIN:	SOS YEAR
  1057	001374'	201040	000014	00340		MOVEI T1,^D12	;GET IT BACK TO RIGHT SIZE
  1058	001375'	254000	001364'	00350		JRST ADJUST
  1059
  1060	001376'	200100	002422'	00370	SETLDY:	MOVE T2,MONTH	;SET DAY TO LAST DAY OF MONTH
  1061	001377'	200042	000524'	00380		MOVE T1,MONDAY-1(T2)
  1062	001400'	202040	002417'	00390		MOVEM T1,DAY
  1063	001401'	302100	000002	00400		CAIE T2,2	;WORRY ABOUT LEAP YEAR
  1064	001402'	263740	000000	00410		POPJ P,
  1065	001403'	200100	002437'	00420		MOVE T2,YEAR
  1066	001404'	606100	000003	00430		TRNN T2,3
  1067	001405'	350000	002417'	00440		AOS DAY		;FEB IN LEAP YEAR, ONE MORE DAY
  1068	001406'	263740	000000	00450		POPJ P,
RCDATE - COMMON DATE STUFF FOR REMIND AND SEC	MACRO 12.5-46.0 21:52  2-MAR-81 PAGE 17
RCDATE.MAC	19-JUN-78 15:07	

  1069	001407'	134300	000011	00010	SUBMDY:	ILDB CODE,DPTR	;GET DAY NUMBER
  1070	001410'	261740	000006	00020		PUSH P,CODE	;SAVE FOR A WHILE
  1071	001411'	134300	000011	00030		ILDB CODE,DPTR
  1072	001412'	326300	001477'	00040		JUMPN CODE,SUBSMD	;SPECIFIC MONTH
  1073	001413'	260740	000633'	00050		PUSHJ P,GETNUM	;EVERY N MONTHS
  1074	001414'	200040	002432'	00060		MOVE T1,TARGET
  1075	001415'	602000	000100	00070		TRNE FL,FBEF
  1076	001416'	275040	000001	00080		SUBI T1,1	;READJUST TARGET DATE
  1077	001417'	260740	001335'	00090		PUSHJ P,SETMON	;FIND THE CORRECT YEAR AND MONTH
  1078	001420'	250317	000000	00100		EXCH CODE,(P)	;NOW GET DAY
  1079	001421'	326300	001442'	00110		JUMPN CODE,SUBMSD	;0 IS EVERY DAY
  1080	001422'	200040	002422'	00120		MOVE T1,MONTH
  1081	001423'	200100	002437'	00130		MOVE T2,YEAR
  1082	001424'	316040	002413'	00140		CAMN T1,CURMON
  1083	001425'	312100	002414'	00150		CAME T2,CURYR	;ARE MONTH AND YEAR SAME AS TARGET?
  1084	001426'	254000	001434'	00160		JRST RDAY1	;GO GIVE BACK DAY 1 OF THIS MONTH
  1085	001427'	262740	000006	00170	RTARG:	POP P,CODE	;YES, ADJUST STACK
  1086	001430'	200040	002432'	00180		MOVE T1,TARGET	;AND RETURN TARGET DATE
  1087	001431'	602000	000100	00190		TRNE FL,FBEF
  1088	001432'	275040	000001	00200		SUBI T1,1
  1089	001433'	254000	001275*	00210		JRST CPOPJ1
  1090
  1091	001434'	262740	000006	00230	RDAY1:	POP P,CODE
  1092	001435'	201040	000001	00240	RDAY11:	MOVEI T1,1
  1093	001436'	202040	002417'	00250		MOVEM T1,DAY
  1094	001437'	602000	000100	00260		TRNE FL,FBEF
  1095	001440'	260740	001376'	00270		PUSHJ P,SETLDY	;SET LAST DAY IF WANT BEFORE
  1096	001441'	254000	000434'	00280		JRST YDCNV	;GO CONVERT TO A NUMBER OF DAYS
  1097
  1098	001442'	200040	002422'	00300	SUBMSD:	MOVE T1,MONTH	;LIKE 25TH DAY OF EVERY MONTH
  1099	001443'	200100	002437'	00310		MOVE T2,YEAR
  1100	001444'	316040	002413'	00320		CAMN T1,CURMON
  1101	001445'	312100	002414'	00330		CAME T2,CURYR	;ARE THEY THE SAME
  1102	001446'	254000	001453'	00340		JRST MDYNSD	;NO, JUST SET DAY AND GO
  1103	001447'	602000	000100	00350		TRNE FL,FBEF
  1104				00360		JRST	[CAMLE CODE,DAY
  1105				00370			JRST MDYNS1	;DIFFERENT TEST FOR BEFORE
  1106	001450'	254000	002451'	00380			JRST MDYNSD]
  1107	001451'	315300	002417'	00390		CAMGE CODE,DAY	;IS IT TOO LATE IN THE MONTH
  1108	001452'	254000	001460'	00400		JRST MDYNS1	;YES,TRY NEXT MONTH
  1109
  1110	001453'	202300	002417'	00420	MDYNSD:	MOVEM CODE,DAY
  1111	001454'	260740	000434'	00430		PUSHJ P,YDCNV
  1112	001455'	334000	000000	00440		 SKIPA
  1113	001456'	254000	001475'	00450		JRST DPOPJ1	;GO TO IT
  1114	001457'	200100	002422'	00460		MOVE T2,MONTH	;TO SEE IF MONTH HAS CHANGED
  1115	001460'	200057	000000	00470	MDYNS1:	MOVE T1,(P)	;THE MONTH INCREMENT. WHEN ENTERED FROM
  1116				00480				;ABOVE, T2 HAS YEAR SO GOES FIRST TIME
  1117	001461'	260740	001623'	00490		PUSHJ P,ADJST1
  1118	001462'	312100	002422'	00500		CAME T2,MONTH	;HAS MONTH CHANGED?
  1119	001463'	254000	001453'	00510		JRST MDYNSD	;YES, SO TRY CONVERSION AGAIN
  1120	001464'	302100	000002	00520		CAIE T2,2	;NO, IS IT FEB?
  1121	001465'	254000	001473'	00530		JRST DPOPJ	;NO, WILL CONTINUE TO FAIL
RCDATE - COMMON DATE STUFF FOR REMIND AND SEC	MACRO 12.5-46.0 21:52  2-MAR-81 PAGE 17-2
RCDATE.MAC	19-JUN-78 15:07	

  1122	001466'	302300	000035	00540		CAIE CODE,^D29
  1123	001467'	254000	001473'	00550		JRST DPOPJ	;WILL STILL FAIL IF NOT THE 29TH
  1124	001470'	200057	000000	00560		MOVE T1,(P)	;GET INC AGAIN
  1125	001471'	231040	000060	00570		IDIVI T1,^D48
  1126	001472'	326100	001453'	00580		JUMPN T2,MDYNSD	;STILL WILL FAIL IF EVERY 4 YEARS
  1127	001473'	262740	000006	00590	DPOPJ:	POP P,CODE
  1128	001474'	263740	000000	00600		POPJ P,
  1129
  1130	001475'	262740	000006	00620	DPOPJ1:	POP P,CODE
  1131	001476'	254000	001433*	00630		JRST CPOPJ1
RCDATE - COMMON DATE STUFF FOR REMIND AND SEC	MACRO 12.5-46.0 21:52  2-MAR-81 PAGE 18
RCDATE.MAC	19-JUN-78 15:07	

  1132	001477'	200040	002432'	00010	SUBSMD:	MOVE T1,TARGET	;SPECIFIC MONTH GIVEN
  1133	001500'	602000	000100	00020		TRNE FL,FBEF
  1134	001501'	275040	000001	00030		SUBI T1,1
  1135	001502'	260740	000602'	00040		PUSHJ P,BREAK	;AS JUNE 25TH
  1136	001503'	250317	000000	00050		EXCH CODE,(P)
  1137	001504'	326300	001516'	00060		JUMPN CODE,SUBSSD
  1138	001505'	200040	002422'	00070		MOVE T1,MONTH	;EVERY DAY IN JUNE
  1139	001506'	316057	000000	00080		CAMN T1,(P)	;IS MONTH SAME AS CURRENT?
  1140	001507'	254000	001427'	00090		JRST RTARG	;YES, RETURN TARGET DATE
  1141	001510'	311057	000000	00100		CAML T1,(P)	;IS IT TOO LATE IN YEAR
  1142	001511'	350000	002437'	00110		AOS YEAR	;YES, TRY NEXT YEAR
  1143	001512'	602000	000100	00120		TRNE FL,FBEF
  1144	001513'	370000	002437'	00130		SOS YEAR	;ALWAYS A YEAR EARLIER HERE
  1145	001514'	262740	002422'	00140		POP P,MONTH	;SET MONTH
  1146	001515'	254000	001435'	00150		JRST RDAY11	;GIVE DAY1
  1147
  1148	001516'	202300	002417'	00170	SUBSSD:	MOVEM CODE,DAY	;SPECIFIC DAY OF SPECIFIC MONTH
  1149	001517'	262740	002422'	00180		POP P,MONTH	;SET DAY AND MONTH
  1150	001520'	260740	000434'	00190	SUBSS2:	PUSHJ P,YDCNV
  1151	001521'	254000	001530'	00200		 JRST SUBSS1	;FAILED
  1152	001522'	260740	001616'	00210		PUSHJ P,TCOMP	;DO A COMPARE DEPENDING ON FBEF
  1153	001523'	254000	001476*	00220		 JRST CPOPJ1	;IT IS
  1154	001524'	602000	000100	00230		TRNE FL,FBEF
  1155	001525'	374000	002437'	00240		SOSA YEAR	;BACK UP INSTEAD OF FORWARD
  1156	001526'	350000	002437'	00250		AOS YEAR	;NO TRY NEXT YEAR
  1157	001527'	254000	001520'	00260		JRST SUBSS2
  1158
  1159	001530'	200040	002422'	00280	SUBSS1:	MOVE T1,MONTH
  1160	001531'	302040	000002	00290		CAIE T1,2
  1161	001532'	263740	000000	00300		POPJ P,		;NOT FEB, DOOMED TO FAIL
  1162	001533'	200040	002417'	00310		MOVE T1,DAY
  1163	001534'	302040	000035	00320		CAIE T1,^D29
  1164	001535'	263740	000000	00330		POPJ P,		;NOT FEB 29, DOOMED
  1165	001536'	200040	002437'	00340		MOVE T1,YEAR
  1166	001537'	606000	000100	00350		TRNN FL,FBEF	;PREVIOS LEAP YEAR IF BEFORE
  1167	001540'	271040	000004	00360		ADDI T1,4	;MAKE THE NEXT LEAP YEAR
  1168	001541'	620040	000003	00370		TRZ T1,3
  1169	001542'	202040	002437'	00380		MOVEM T1,YEAR
  1170	001543'	254000	001520'	00390		JRST SUBSS2	;SHOULD WORK THIS TIME
RCDATE - COMMON DATE STUFF FOR REMIND AND SEC	MACRO 12.5-46.0 21:52  2-MAR-81 PAGE 19
RCDATE.MAC	19-JUN-78 15:07	

  1171	001544'	134300	000011	00010	SUBLDY:	ILDB CODE,DPTR
  1172	001545'	326300	001557'	00020		JUMPN CODE,SUBLSD	;SPECIFIC MONTH
  1173	001546'	260740	000633'	00030		PUSHJ P,GETNUM
  1174	001547'	200040	002432'	00040		MOVE T1,TARGET
  1175	001550'	260740	001335'	00050		PUSHJ P,SETMON		;SET UP A MONTH
  1176	001551'	326100	001555'	00060		JUMPN T2,SUBLDC	;T2 HAS REMAINDER FROM SETMON
  1177	001552'	210040	000006	00070		MOVN T1,CODE
  1178	001553'	602000	000100	00080		TRNE FL,FBEF
  1179	001554'	260740	001364'	00090		PUSHJ P,ADJUST	;ADJUST IF WANT BEFORE AND 0 REMAINDER
  1180	001555'	260740	001376'	00100	SUBLDC:	PUSHJ P,SETLDY		;SET TO LAST DAY
  1181	001556'	254000	000434'	00110		JRST YDCNV
  1182
  1183	001557'	200040	002432'	00130	SUBLSD:	MOVE T1,TARGET
  1184	001560'	260740	000602'	00140		PUSHJ P,BREAK
  1185	001561'	315300	002422'	00150		CAMGE CODE,MONTH	;IS THE DESIRE MONTH AFTER OR > THIS
  1186	001562'	350000	002437'	00160		AOS YEAR		;NO, TRY NEXT YEAR
  1187	001563'	602000	000100	00170		TRNE FL,FBEF
  1188	001564'	370000	002437'	00180		SOS YEAR	;ONE YEAR EARLIER
  1189	001565'	202300	002422'	00190		MOVEM CODE,MONTH
  1190	001566'	254000	001555'	00200		JRST SUBLDC		;GO
  1191
  1192	001567'	134300	000011	00220	SUBLDW:	ILDB CODE,DPTR		;THE DAY OF WEEK
  1193	001570'	261740	000006	00230		PUSH P,CODE
  1194	001571'	134300	000011	00240		ILDB CODE,DPTR
  1195	001572'	326300	001611'	00250		JUMPN CODE,SUBLSW	;SPECIFIC MONTH
  1196	001573'	260740	000633'	00260		PUSHJ P,GETNUM
  1197	001574'	200040	002432'	00270		MOVE T1,TARGET
  1198	001575'	260740	001335'	00280		PUSHJ P,SETMON
  1199	001576'	260740	001376'	00290	SUBLW1:	PUSHJ P,SETLDY		;SET LAST DAY
  1200	001577'	260740	000434'	00300		PUSHJ P,YDCNV		;RECONVERT
  1201	001600'	254000	000724'	00310		 JRST SYSERR		;MUST WORK
  1202	001601'	250317	000000	00320		EXCH CODE,(P)		;GET DOW
  1203	001602'	260740	001323'	00330		PUSHJ P,DOWBFE		;FIND ONE BEFORE OR =
  1204	001603'	260740	001616'	00340		PUSHJ P,TCOMP
  1205	001604'	254000	001475'	00350		 JRST DPOPJ1	;YES, EXIT
  1206	001605'	250317	000000	00360		EXCH CODE,(P)
  1207	001606'	200040	000006	00370		MOVE T1,CODE
  1208	001607'	260740	001623'	00380		PUSHJ P,ADJST1		;TRY NEXT ONE
  1209	001610'	254000	001576'	00390		JRST SUBLW1
  1210
  1211	001611'	200040	002432'	00410	SUBLSW:	MOVE T1,TARGET
  1212	001612'	260740	000602'	00420		PUSHJ P,BREAK
  1213	001613'	202300	002422'	00430		MOVEM CODE,MONTH	;SET DESIRED MONTH
  1214	001614'	201300	000014	00440		MOVEI CODE,^D12		;SET FOR EVERY 12 MONTHS
  1215	001615'	254000	001576'	00450		JRST SUBLW1		;AND GO LOOK FOR IT
  1216
  1217	001616'	606000	000100	00470	TCOMP:	TRNN FL,FBEF
  1218				00480		JRST	[CAMGE T1,TARGET
  1219				00490			AOS (P)
  1220	001617'	254000	002454'	00500			POPJ P,]
  1221	001620'	311040	002432'	00510		CAML T1,TARGET
  1222	001621'	350017	000000	00520		AOS (P)
  1223	001622'	263740	000000	00530		POPJ P,
RCDATE - COMMON DATE STUFF FOR REMIND AND SEC	MACRO 12.5-46.0 21:52  2-MAR-81 PAGE 19-2
RCDATE.MAC	19-JUN-78 15:07	

  1224
  1225	001623'	602000	000100	00550	ADJST1:	TRNE FL,FBEF
  1226	001624'	213000	000001	00560		MOVNS T1	;DO OPPOSITE ADJUST IF BEFORE
  1227	001625'	254000	001364'	00570		JRST ADJUST
RCDATE - COMMON DATE STUFF FOR REMIND AND SEC	MACRO 12.5-46.0 21:52  2-MAR-81 PAGE 20
RCDATE.MAC	19-JUN-78 15:07	

  1228	001626'	134300	000011	00010	SUBMDW:	ILDB CODE,DPTR		;GET NUMBER OF DOW WANTED
  1229	001627'	261740	000006	00020		PUSH P,CODE
  1230	001630'	134300	000011	00030		ILDB CODE,DPTR	;THE DOW
  1231	001631'	261740	000006	00040		PUSH P,CODE
  1232	001632'	134300	000011	00050		ILDB CODE,DPTR
  1233	001633'	326300	001677'	00060		JUMPN CODE,SUBSMW	;SPECIFIC MONTH
  1234	001634'	260740	000633'	00070		PUSHJ P,GETNUM
  1235	001635'	200040	002432'	00080		MOVE T1,TARGET
  1236	001636'	602000	000100	00090		TRNE FL,FBEF
  1237	001637'	275040	000001	00100		SUBI T1,1
  1238	001640'	260740	001335'	00110		PUSHJ P,SETMON
  1239	001641'	250317	777777	00120		EXCH CODE,-1(P)		;WHICH WED
  1240	001642'	326300	001755'	00130		JUMPN CODE,SUBMSW	;SPECIFIC ONE
  1241	001643'	262740	000006	00140		POP P,CODE		;EVERY ONE
  1242	001644'	200040	002422'	00150		MOVE T1,MONTH
  1243	001645'	200100	002437'	00160		MOVE T2,YEAR		;CHECK IF THIS MONTH
  1244	001646'	316040	002413'	00170		CAMN T1,CURMON
  1245	001647'	312100	002414'	00180		CAME T2,CURYR
  1246	001650'	254000	001666'	00190		JRST MDWNXM		;NO, JUST FIND IT
  1247	001651'	200040	002432'	00200		MOVE T1,TARGET
  1248	001652'	602000	000100	00210		TRNE FL,FBEF
  1249	001653'	275040	000001	00220		SUBI T1,1
  1250	001654'	260740	001722'	00230		PUSHJ P,DOWAFC		;FIND ONE
  1251	001655'	261740	000001	00240		PUSH P,T1		;SAVE DATE GENERATED
  1252	001656'	260740	000602'	00250		PUSHJ P,BREAK
  1253	001657'	262740	000001	00260		POP P,T1
  1254	001660'	200100	002413'	00270		MOVE T2,CURMON
  1255	001661'	316100	002422'	00280		CAMN T2,MONTH		;HAS MONTH CHANGED?
  1256	001662'	254000	001475'	00290		JRST DPOPJ1		;NO, GOOD DATE
  1257	001663'	202100	002422'	00300		MOVEM T2,MONTH		;CHANGED, RESET MONTH
  1258	001664'	200057	000000	00310		MOVE T1,(P)		;GET INCREMENT
  1259	001665'	260740	001623'	00320		PUSHJ P,ADJST1
  1260	001666'	201040	000001	00330	MDWNXM:	MOVEI T1,1
  1261	001667'	202040	002417'	00340		MOVEM T1,DAY
  1262	001670'	602000	000100	00350		TRNE FL,FBEF
  1263	001671'	260740	001376'	00360		PUSHJ P,SETLDY
  1264	001672'	260740	000434'	00370		PUSHJ P,YDCNV
  1265	001673'	254000	000724'	00380		 JRST SYSERR
  1266	001674'	262740	000002	00390		POP P,T2		;GET RID OF MONTH INCREMENT
  1267	001675'	350017	000000	00400		AOS (P)	;SET FOR SKIP RETURN
  1268	001676'	254000	001722'	00410		JRST DOWAFC		;FIND DAY OF WEEK
  1269
  1270	001677'	250317	777777	00430	SUBSMW:	EXCH CODE,-1(P)		;FIND WHICH WED WANTED
  1271	001700'	326300	001765'	00440		JUMPN CODE,SUBSSW	;SPECIFIC ONE
  1272	001701'	200040	002432'	00450		MOVE T1,TARGET		;EVERY ONE
  1273	001702'	602000	000100	00460		TRNE FL,FBEF
  1274	001703'	275040	000001	00470		SUBI T1,1
  1275	001704'	262740	000006	00480		POP P,CODE
  1276	001705'	260740	001722'	00490		PUSHJ P,DOWAFC		;FIND IT
  1277	001706'	261740	000001	00500		PUSH P,T1
  1278	001707'	260740	000602'	00510		PUSHJ P,BREAK
  1279	001710'	262740	000001	00520		POP P,T1
  1280	001711'	200117	000000	00530		MOVE T2,(P)		;DESIRED MONTH
RCDATE - COMMON DATE STUFF FOR REMIND AND SEC	MACRO 12.5-46.0 21:52  2-MAR-81 PAGE 20-2
RCDATE.MAC	19-JUN-78 15:07	

  1281	001712'	316100	002422'	00540		CAMN T2,MONTH		;CORRECT ONE?
  1282	001713'	254000	001475'	00550		JRST DPOPJ1		;YES
  1283	001714'	315100	002422'	00560		CAMGE T2,MONTH
  1284	001715'	350000	002437'	00570		AOS YEAR		;MUST TRY NEXT YEAR
  1285	001716'	602000	000100	00580		TRNE FL,FBEF
  1286	001717'	370000	002437'	00590		SOS YEAR
  1287	001720'	202100	002422'	00600		MOVEM T2,MONTH
  1288	001721'	254000	001666'	00610		JRST MDWNXM		;GO GET IT
  1289
  1290	001722'	606000	000100	00630	DOWAFC:	TRNN FL,FBEF
  1291	001723'	254000	001312'	00640		JRST DOWAFE
  1292	001724'	254000	001323'	00650		JRST DOWBFE
RCDATE - COMMON DATE STUFF FOR REMIND AND SEC	MACRO 12.5-46.0 21:52  2-MAR-81 PAGE 21
RCDATE.MAC	19-JUN-78 15:07	

  1293	001725'	201040	000001	00010	MDWCOM:	MOVEI T1,1		;A COMMON ROUTINE
  1294	001726'	202040	002417'	00020		MOVEM T1,DAY
  1295	001727'	200040	002422'	00030		MOVE T1,MONTH
  1296	001730'	202040	002413'	00040		MOVEM T1,CURMON		;SAVE THIS MONTH
  1297	001731'	200040	002437'	00050		MOVE T1,YEAR
  1298	001732'	202040	002414'	00060		MOVEM T1,CURYR	;AND YEAR
  1299	001733'	260740	000434'	00070		PUSHJ P,YDCNV
  1300	001734'	254000	000724'	00080		 JRST SYSERR
  1301	001735'	250317	777777	00090		EXCH CODE,-1(P)	;GET DOW OFF STACK
  1302	001736'	260740	001312'	00100		PUSHJ P,DOWAFE	;FIND ONE AFTER
  1303	001737'	250317	777777	00110		EXCH CODE,-1(P)
  1304	001740'	200117	777776	00120		MOVE T2,-2(P)	;NTH DOW
  1305	001741'	221100	000007	00130		IMULI T2,7
  1306	001742'	271042	777771	00140		ADDI T1,-7(T2)
  1307	001743'	261740	000001	00150		PUSH P,T1	;SAVE DATE
  1308	001744'	260740	000602'	00160		PUSHJ P,BREAK
  1309	001745'	262740	000001	00170		POP P,T1
  1310	001746'	200100	002413'	00180		MOVE T2,CURMON	;SEE IF MONTH HAS CHANGED
  1311	001747'	316100	002422'	00190		CAMN T2,MONTH
  1312	001750'	350017	000000	00200		AOS (P)		;NO, SKIP RETURN
  1313	001751'	202100	002422'	00210		MOVEM T2,MONTH	;RESET JUST IN CASE
  1314	001752'	200100	002414'	00220		MOVE T2,CURYR
  1315	001753'	202100	002437'	00230		MOVEM T2,YEAR
  1316	001754'	263740	000000	00240		POPJ P,
  1317
  1318	001755'	250317	777777	00260	SUBMSW:	EXCH CODE,-1(P)	;GET THE INCREMENT IN CODE
  1319	001756'	260740	001725'	00270	SUBSW2:	PUSHJ P,MDWCOM	;CALL COMMON ROUTINE
  1320	001757'	254000	001762'	00280		 JRST SUBSW1	;MONTH CHANGED
  1321	001760'	260740	001616'	00290		PUSHJ P,TCOMP
  1322	001761'	254000	001775'	00300		 JRST DPOPJ2	;NO, ALL OK
  1323	001762'	200040	000006	00310	SUBSW1:	MOVE T1,CODE
  1324	001763'	260740	001623'	00320		PUSHJ P,ADJST1	;TRY NEXT MONTH
  1325	001764'	254000	001756'	00330		JRST SUBSW2
  1326
  1327	001765'	250317	777777	00350	SUBSSW:	EXCH CODE,-1(P)	;GET MONTH BACK
  1328	001766'	200040	002432'	00360		MOVE T1,TARGET	;3RD WED IN NOV ETC
  1329	001767'	602000	000100	00370		TRNE FL,FBEF
  1330	001770'	275040	000001	00380		SUBI T1,1
  1331	001771'	260740	000602'	00390		PUSHJ P,BREAK
  1332	001772'	202300	002422'	00400		MOVEM CODE,MONTH
  1333	001773'	201300	000014	00410		MOVEI CODE,^D12	;SET INCREMENT
  1334	001774'	254000	001756'	00420		JRST SUBSW2	;AND TRY TILL WE GET IT
  1335
  1336	001775'	262740	000006	00440	DPOPJ2:	POP P,CODE
  1337	001776'	254000	001475'	00450		JRST DPOPJ1
RCDATE - COMMON DATE STUFF FOR REMIND AND SEC	MACRO 12.5-46.0 21:52  2-MAR-81 PAGE 22
RCDATE.MAC	19-JUN-78 15:07	

  1338	001777'	260740	000633'	00010	SUBDBF:	PUSHJ P,GETNUM
  1339	002000'	272300	002432'	00020	COMDBF:	ADDM CODE,TARGET	;CHANGE TARGET DATE
  1340	002001'	261740	000006	00030		PUSH P,CODE	;SAVE NUMBER
  1341	002002'	261740	002457'	00040		PUSH P,[FINDBF]	;AND ADRESS OF FINISH UP ROUTINE
  1342	002003'	254000	001227'	00050		JRST SUBDT1	;RETURN
  1343
  1344	002004'	260740	000633'	00070	SUBDAF:	PUSHJ P,GETNUM
  1345	002005'	213000	000006	00080		MOVNS CODE	;SET NUMBER MINUS
  1346	002006'	254000	002000'	00090		JRST COMDBF
  1347
  1348	002007'	254000	001473'	00110	FINDBF:	JRST DPOPJ	;A NON-SKIP RETURN
  1349	002010'	262740	000006	00120		POP P,CODE
  1350	002011'	274040	000006	00130		SUB T1,CODE
  1351	002012'	254000	001523*	00140		JRST CPOPJ1
  1352
  1353	002013'	260740	000633'	00160	SUBWAF:	PUSHJ P,GETNUM	;NTH WED AFTER
  1354	002014'	275300	000001	00170		SUBI CODE,1
  1355	002015'	221300	000007	00180		IMULI CODE,7
  1356	002016'	261740	000006	00190		PUSH P,CODE	;PUT RET ADR BACK ON
  1357	002017'	134300	000011	00200		ILDB CODE,DPTR	;GET WHICH DAY OF WEEK
  1358	002020'	506317	000000	00210		HRLM CODE,(P)	;SAVE IN LEFT HALF
  1359	002021'	200040	002432'	00220		MOVE T1,TARGET
  1360	002022'	260740	001324'	00230		PUSHJ P,DOWBFN	;FIND DAY BEFORE AND NOT =
  1361	002023'	550317	000000	00240		HRRZ CODE,(P)
  1362	002024'	274040	000006	00250		SUB T1,CODE	;AND REST OF INCREMENT
  1363	002025'	202040	002432'	00260		MOVEM T1,TARGET
  1364	002026'	261740	002460'	00270		PUSH P,[FINWAF]
  1365	002027'	254000	001227'	00280		JRST SUBDT1
  1366
  1367	002030'	260740	000633'	00300	SUBWBF:	PUSHJ P,GETNUM
  1368	002031'	275300	000001	00310		SUBI CODE,1
  1369	002032'	221300	000007	00320		IMULI CODE,7
  1370	002033'	261740	000006	00330		PUSH P,CODE
  1371	002034'	134300	000011	00340		ILDB CODE,DPTR
  1372	002035'	506317	000000	00350		HRLM CODE,(P)
  1373	002036'	200040	002432'	00360		MOVE T1,TARGET	;NTH WED BEFORE SEE ABOVE
  1374	002037'	260740	001312'	00370		PUSHJ P,DOWAFE
  1375	002040'	550317	000000	00380		HRRZ CODE,(P)
  1376	002041'	271046	000001	00390		ADDI T1,1(CODE)
  1377	002042'	202040	002432'	00400		MOVEM T1,TARGET
  1378	002043'	261740	002461'	00410		PUSH P,[FINWBF]
  1379	002044'	254000	001227'	00420		JRST SUBDT1
RCDATE - COMMON DATE STUFF FOR REMIND AND SEC	MACRO 12.5-46.0 21:52  2-MAR-81 PAGE 23
RCDATE.MAC	19-JUN-78 15:07	

  1380	002045'	254000	001473'	00100	FINWAF:	JRST DPOPJ
  1381	002046'	554317	000000	00200		HLRZ CODE,(P)
  1382	002047'	260740	001311'	00300		PUSHJ P,DOWAFN
  1383	002050'	262740	000006	00400		POP P,CODE
  1384	002051'	553000	000006	00500		HRRZS CODE
  1385	002052'	270040	000006	00600		ADD T1,CODE
  1386	002053'	254000	002012*	00700		JRST CPOPJ1
  1387
  1388	002054'	254000	001473'	00900	FINWBF:	JRST DPOPJ
  1389	002055'	554317	000000	01000		HLRZ CODE,(P)
  1390	002056'	260740	001324'	01100		PUSHJ P,DOWBFN
  1391	002057'	262740	000006	01200		POP P,CODE
  1392	002060'	553000	000006	01300		HRRZS CODE
  1393	002061'	274040	000006	01400		SUB T1,CODE
  1394	002062'	254000	002053*	01500		JRST CPOPJ1
  1395
  1396	002063'	000000	000000	01800	datcnt:	0
  1397	002064'	000000	000000	01900	orgref:	0
  1398	002065'	000000	000000	02000	datwrn:	0
  1399	002066'	000000	000000	02100	dattim:	0
  1400	002067'	000000	000000	02200	datcnc:	0
  1401	002070'			02300	dattxt:	block	^d12
  1402	002104'			02400	datbuf:	block	datsiz
RCDATE - COMMON DATE STUFF FOR REMIND AND SEC	MACRO 12.5-46.0 21:52  2-MAR-81 PAGE 24
RCDATE.MAC	19-JUN-78 15:07	

  1403				00010	;FIND THE NEXT DATE IN THE DATE LIST
  1404
  1405	002262'	201500	000001	00030	INIDAT:	MOVEI BLK,1
  1406	002263'	260740	000000*	00040		PUSHJ P,RDBUF	;FIND THE FIRST
  1407	002264'	336513	000176*	00050		SKIPN BLK,BUFDTA+176(BUF)
  1408	002265'	263740	000000	00060		POPJ P,	;NONE THERE
  1409	002266'	350017	000000	00070		AOS (P)
  1410	002267'	260740	002263*	00080		PUSHJ P,RDBUF	;READ IN THAT BLOCK
  1411	002270'	201640	000001	00090	INIDCS:	MOVEI CS,1
  1412	002271'	202640	002415'	00100		MOVEM CS,DATNMB#	;SET THE DATE NUMBER
  1413	002272'	201653	000001*	00110	INIDT2:	MOVEI CS,BUFDTA+1(BUF)
  1414	002273'	505640	777772	00120		HRLI CS,-6	;SET UP AN AOBJN POINTER
  1415	002274'	332015	000021	00130		SKIPE ^D17(CS)	;IS THERE A DATE THERE?
  1416	002275'	350017	000000	00140		AOS (P)		;YES, SKIP RETURN
  1417	002276'	263740	000000	00150		POPJ P,		;NO
  1418
  1419	002277'	200115	000000	00170	NXTDAT:	MOVE T2,(CS)
  1420	002300'	231100	000023	00180		IDIVI T2,^D19	;FIND OUT HOW MANY BLOCKS FROM COUNT
  1421	002301'	271640	000022	00190	NXTDCS:	ADDI CS,^D18
  1422	002302'	350000	002415'	00200		AOS DATNMB
  1423	002303'	252640	002310'	00210		AOBJP CS,NXTDBK	;OUT OF DATES IN THIS BLOCK
  1424	002304'	367100	002301'	00220		SOJG T2,NXTDCS	;GET PAST CURRENT ONE
  1425	002305'	332015	000021	00230		SKIPE ^D17(CS)	;IS THERE ONE THERE?
  1426	002306'	350017	000000	00240		AOS (P)
  1427	002307'	254000	002062*	00250		JRST CPOPJ1	;SKIPE IF NO DATE DOUBLE IF DATE
  1428
  1429	002310'	336653	000000*	00270	NXTDBK:	SKIPN CS,BUFDTA(BUF)	;IS THERE A NEXT BLOCK?
  1430	002311'	263740	000000	00280		POPJ P,			;NO
  1431	002312'	200500	000015	00290		MOVE BLK,CS
  1432	002313'	260740	002267*	00300		PUSHJ P,RDBUF
  1433	002314'	350017	000000	00310		AOS (P)
  1434	002315'	254000	002272'	00320		JRST INIDT2
  1435
  1436	002316'	200115	000000	00340	DATDL1:	MOVE T2,(CS)	;GET COUNT OF DATE TO DELETE
  1437	002317'	231100	000023	00350		IDIVI T2,^D19	;SEE HOW MANY BLOCKS
  1438	002320'	201140	000023	00360		MOVEI T3,^D19	;SET TO SET BLOCK COUNT
  1439	002321'	202155	000000	00370	DATDL2:	MOVEM T3,(CS)	;SET COUNT
  1440	002322'	402015	000021	00380		SETZM ^D17(CS)	;AND NOT IN USE
  1441	002323'	271640	000023	00390		ADDI CS,^D19	;JUST IN CASE MORE BLOCKS
  1442	002324'	367100	002321'	00400		SOJG T2,DATDL2	;CONTINUE IF MORE
  1443	002325'	254000	000000*	00410		JRST WRTBUF	;WRITE THE BUFFER BACK OUT
RCDATE - COMMON DATE STUFF FOR REMIND AND SEC	MACRO 12.5-46.0 21:52  2-MAR-81 PAGE 25
RCDATE.MAC	19-JUN-78 15:07	

  1444				00100	;ROUTINE TO LIST INFO ON DATES OR ON TODAY
  1445				00200	;PUSHJ P,LSTTDY (OR LSTDAT)
  1446				00300	; INSTR TO BE EXECUTED FOR OLD DATES
  1447				00400	; RETURN
  1448
  1449	002326'	260740	000541'	00600	LSTTDY:	PUSHJ P,GENTDY	;GET TODAYS DATE
  1450	002327'	634100	000002	00700		TDZA T2,T2	;A FLAG TO SAY DOING TODAY
  1451	002330'	201100	000001	00800	LSTDAT:	MOVEI T2,1
  1452	002331'	202100	002433'	00900		MOVEM T2,TDYFLG#
  1453	002332'	202040	002426'	01000		MOVEM T1,SRCDAT#	;ENTER HERE WITH DATE IN T1
  1454	002333'	260740	002262'	01100		PUSHJ P,INIDAT
  1455	002334'	254000	002307*	01200		 JRST CPOPJ1	;NO DATES, DONE
  1456	002335'	254000	002373'	01300		 JRST LSTDTS	;NOT BEING USED
  1457	002336'	201455	000021	01400	LSTDT1:	MOVEI DPTR,^D17(CS)
  1458	002337'	505440	440500	01500		HRLI DPTR,(POINT 5,0)
  1459	002340'	202440	002431'	01600		MOVEM DPTR,SVDPTR	;SET UP POINTER TO IT
  1460	002341'	200055	000001	01700		MOVE T1,1(CS)
  1461	002342'	202040	002416'	01800		MOVEM T1,DATREF#		;AND REFERENCE DATE
  1462	002343'	200040	002426'	01900		MOVE T1,SRCDAT
  1463	002344'	315055	000004	02000		CAMGE T1,4(CS)		;CHECK WITH CANCEL DATE
  1464	002345'	334055	000004	02100		SKIPA T1,4(CS)		;SET CANCEL DATE AS SRC DATE
  1465				02200		JRST	[MOVEM T1,MTARG	;SEE IF NEED TO REMOVE CANCEL
  1466				02300			SKIPLE 4(CS)
  1467				02400			SKIPE TDYFLG
  1468				02500			JRST LSTDT3	;NOT CANCLED OR NOT TODAY
  1469				02600			SETOM 4(CS)
  1470				02700			PUSHJ P,WRTBUF	;REMOVE CANCELATION
  1471	002346'	254000	002462'	02800			JRST LSTDT3]
  1472	002347'	202040	002423'	02900		MOVEM T1,MTARG		;SET THE TARGET DATE
  1473	002350'	260740	000654'	03000	LSTDT3:	PUSHJ P,GENDAT		;GO GET THE NEXT OCCURANCE
  1474	002351'	254000	002377'	03100		 JRST LSTDTO		;DATE IS OBSOLETE
  1475	002352'	316040	002426'	03200		CAMN T1,SRCDAT		;IS THIS EXACTLY THE ONE?
  1476				03300		JRST	[SKIPE 3(CS)	;IS TIME SPECIFIED?
  1477				03400			SKIPE TDYFLG	;OR NOT DOING TODAY
  1478				03500			JRST LSTDTT	;NO, GO LIST THE TEXT
  1479				03600			MSTIME T1,
  1480				03700			IDIVI T1,^D60000
  1481				03800			HRRZ T2,3(CS)
  1482				03900			HLRZ T3,3(CS)
  1483				04000			CAMGE T1,T2	;IS TIME WITHIN RANGE?
  1484				04100			JRST	[pushj	p,clralr
  1485				04400				JRST LSTDTS]
  1486				04500			CAMGE T1,T3	;NO
  1487				04600			JRST LSTDTT	;YES, LIST THIS ONE
  1488				04610			pushj	p,clralr
  1489				04700			AOS MTARG	;TRY FOR A NEXT DATE (SO DON'T RMOVE)
  1490	002353'	254000	002473'	04800			JRST LSTDT3]	;YES, OBSOLETE
  1491	002354'	200100	000001	04900		MOVE T2,T1		;GET A COPY
  1492	002355'	274115	000002	05000		SUB T2,2(CS)		;SUBTRACT WARNING
  1493	002356'	313100	002426'	05100		CAMLE T2,SRCDAT		;EARLY ENOUGH TO WARN?
  1494	002357'	254000	002373'	05200		JRST LSTDTS		;NO SKIP
  1495	002360'	260740	000573'	05300		PUSHJ P,PRDAT		;PRINT THE DATE
  1496	002361'	051700	000055	05400		OUTCHI "-"
RCDATE - COMMON DATE STUFF FOR REMIND AND SEC	MACRO 12.5-46.0 21:52  2-MAR-81 PAGE 25-2
RCDATE.MAC	19-JUN-78 15:07	

  1497	002362'	051700	000040	05500		OUTCHI " "
  1498	002363'	051155	000005	05600	LSTDTT:	OUTSTR 5(CS)	;THE TEXT
  1499	002364'	051140	002511'	05700		OUTSTR [ASCIZ / (/]	;PRINT THE NUMBER
  1500	002365'	200140	002415'	05800		MOVE T3,DATNMB
  1501	002366'	260740	000570*	05900		PUSHJ P,OUTNUM
  1502				06000		OUTSTR [ASCIZ /)
  1503	002367'	051140	002512'	06100	/]
  1504	002370'	201040	000001	06200		MOVEI	T1,1		;INHIBIT ALARM FOR THIS DATE
  1505	002371'	436055	000005	06300		IORM	T1,5(CS)
  1506	002372'	260740	002325*	06400		PUSHJ	P,WRTBUF
  1507	002373'	260740	002277'	06500	LSTDTS:	PUSHJ P,NXTDAT		;GET THE NEXT ONE
  1508	002374'	254000	002334*	06600		 JRST CPOPJ1		;FINISHED
  1509	002375'	254000	002373'	06700		 JRST LSTDTS		;SKIP ANOTHER
  1510	002376'	254000	002336'	06800		JRST LSTDT1		;FOUND ONE
  1511
  1512	002377'	256037	000000	07000	LSTDTO:	XCT @(P)
  1513	002400'	254000	002373'	07100		JRST LSTDTS
  1514
  1515	002401'	201040	000001	07120	clralr:	movei	t1,1
  1516	002402'	616055	000005	07130		tdnn	t1,5(cs)
  1517	002403'	263740	000000	07140		popj	p,
  1518	002404'	412055	000005	07150		andcam	t1,5(cs)
  1519	002405'	260740	002372*	07160		pushj	p,wrtbuf
  1520	002406'	263740	000000	07170		popj	p,
  1521
  1522				07300		END
  1523
NO ERRORS DETECTED
PROGRAM BREAK IS 002513
5K CORE USED
RCDATE - COMMON DATE STUFF FOR REMIND AND SEC	MACRO 12.5-46.0 21:52  2-MAR-81 PAGE 26
RCDATE.MAC	19-JUN-78 15:07		SYMBOL TABLE

ADJST1		001623'		DSPIND		200000	SPD	ITMMON		000015	SIN	RDBUF		002313'	EXT
ADJUST		001364'		DWDLN		000107	SPD	ITMNM1		000001	SIN	REFRN0		002424'	
BETAB1		001114'		DWDLN3		000325	SIN	ITMNM2		000002	SIN	REFRNC		002425'	
BETAB2		001116'		DWDTB		000000'	INT	ITMNUM		000000	SIN	REM		000002	SPD
BETABT		001110'		EXIT	047000	000012		ITMOR		000006	SIN	RSTERR		100000	SPD
BETCNT		002407'		FBEF		000100	SPD	ITMREF		000007	SIN	RTARG		001427'	
BETCOM		001037'		FEXCPT		000010	SPD	ITMTDY		000024	SIN	SETLDY		001376'	
BETEND		002410'		FINDBF		002007'		ITMTMR		000026	SIN	SETMON		001335'	
BETPTR		002411'		FINWAF		002045'		ITMUNT		000010	SIN	SETPRI		040000	SPD
BETRTY		001124'		FINWBF		002054'		ITMYST		000025	SIN	SRCDAT		002426'	
BETRY0		001133'		FL		000000		LEAP		002421'		STPSCN		020000	SPD
BETRY1		001142'		FNDDAT		002420'	INT	LSTDAT		002330'	INT	STRTN0		002427'	
BETRYC		001126'		FNEED1		000004	SPD	LSTDT1		002336'		STRTNG		002430'	
BETSTR		002412'		FRDATE		000040	SPD	LSTDT3		002350'		SUBDAF		002004'	
BLK		000012		FREF		000020	SPD	LSTDTO		002377'		SUBDAT		001230'	
BREAK		000602'		FREF2		000200	SPD	LSTDTS		002373'		SUBDAY		001262'	
BREAK1		000617'		GENBET		001016'		LSTDTT		002363'		SUBDBF		001777'	
BUF		000013		GENDAT		000654'	INT	LSTTDY		002326'	INT	SUBDOW		001276'	
BUFDTA		002310'	EXT	GENDT1		000674'		MAL		000003	SPD	SUBDT1		001227'	
C		000014		GENDT2		000664'		MALHSH		000177	SPD	SUBDYC		001264'	
CIRC		000400	SPD	GENEND		000771'		MDWCOM		001725'		SUBLDC		001555'	
CLRALR		002401'	INT	GENFRV		000726'		MDWDLN	777777	777671	SIN	SUBLDW		001567'	
CODE		000006		GENOR		000674'		MDWNXM		001666'		SUBLDY		001544'	
COMDBF		002000'		GENRDT		000731'		MDYNS1		001460'		SUBLPR		001156'	
CPOPJ		000440'	EXT	GENREF		000755'		MDYNSD		001453'		SUBLSD		001557'	
CPOPJ1		002374'	EXT	GENRPR		000771'		MONDAY		000525'		SUBLSW		001611'	
CS		000015		GENSAV		000733'		MONMIN		001373'		SUBLW1		001576'	
CURMON		002413'		GENSTR		000761'		MONPTR		000007'	SIN	SUBMDW		001626'	
CURYR		002414'		GENSUB		000746'		MONTAB		000473'		SUBMDY		001407'	
DATBUF		002104'	INT	GENSVB		001145'		MONTB2		000510'		SUBMSD		001442'	
DATCNC		002067'	INT	GENTAB		000676'		MONTH		002422'	INT	SUBMSW		001755'	
DATCNT		002063'	INT	GENTDY		000541'	INT	MSTIME	047000	000023		SUBRDT		001257'	
DATDL1		002316'	INT	GENUNT		000765'		MTARG		002423'	INT	SUBSMD		001477'	
DATDL2		002321'		GENXCP		000775'		NOXCP		001013'		SUBSMW		001677'	
DATE	047000	000014		GETNUM		000633'	INT	NOXCP1		001014'		SUBSS1		001530'	
DATNMB		002415'	INT	GTNM1		000637'		NUMF		000002	SPD	SUBSS2		001520'	
DATREF		002416'	INT	GTNMFN		000646'		NXTDAT		002277'	INT	SUBSSD		001516'	
DATSIZ		000156	SPD	IDF		000001	SPD	NXTDBK		002310'		SUBSSW		001765'	
DATTIM		002066'	INT	INIDAT		002262'	INT	NXTDCS		002301'		SUBSW1		001762'	
DATTXT		002070'	INT	INIDCS		002270'		ORGREF		002064'	INT	SUBSW2		001756'	
DATWRN		002065'	INT	INIDT2		002272'		OUTCHI	051700	000000		SUBTAB		001231'	
DAY		002417'	INT	ITEM		000007		OUTCHR	051040	000000		SUBWAF		002013'	
DCNT		000010		ITMAFT		000020	SIN	OUTNUM		002366'	EXT	SUBWBF		002030'	
DIPRS		400000	SPD	ITMAND		000014	SIN	OUTSIX		000601'	EXT	SVDPTR		002431'	INT
DOWAFC		001722'		ITMBEF		000017	SIN	OUTSTR	051140	000000		SYSERR		000724'	
DOWAFE		001312'		ITMBET		000013	SIN	P		000017		T1		000001	
DOWAFN		001311'		ITMDAY		000016	SIN	P2		000016		T2		000002	
DOWBFE		001323'		ITMDOT		000003	SIN	PDLSZ		000040	SPD	T3		000003	
DOWBFN		001324'		ITMDOW		000004	SIN	PDLSZ2		000020	SPD	T4		000004	
DPOPJ		001473'		ITMEND		000021	SIN	PRDAT		000573'	INT	T5		000005	
DPOPJ1		001475'		ITMEXC		000012	SIN	PRDAT1		000555'	INT	TARGET		002432'	
DPOPJ2		001775'		ITMFRV		000011	SIN	RDAY1		001434'		TCOMP		001616'	
DPTR		000011		ITMMN		000005	SIN	RDAY11		001435'		TDYFLG		002433'	
RCDATE - COMMON DATE STUFF FOR REMIND AND SEC	MACRO 12.5-46.0 21:52  2-MAR-81 PAGE 26-2
RCDATE.MAC	19-JUN-78 15:07		SYMBOL TABLE

TTY		000001	SPD	
UNTDT0		002434'		
UNTLDT		002435'		
WKDPTR		000000'	SIN	
WRTBUF		002467'	EXT	
XCPCNT		002436'		
YDCNV		000434'	INT	
YEAR		002437'	INT	
ZZ		000556	SPD	

RCDATE - COMMON DATE STUFF FOR REMIND AND SEC	MACRO 12.5-46.0 21:52  2-MAR-81
RCDATE.MAC	19-JUN-78 15:07		Symbol cross reference

ADJST1	  1117	  1208	  1225#	  1259	  1324
ADJUST	  1048#	  1054	  1058	  1179	  1227
BETAB1	   838	   870#	   896
BETAB2	   855	   857	   872#	   880
BETABT	   829	   866#	   888
BETCNT	   808#	   808	   810	   864	   876	   879	   887	   895
BETCOM	   825#	   885
BETEND	   814#	   814	   844	   858	   861	   873
BETPTR	   811#	   811	   812	   863	   875	   884
BETRTY	   843	   852	   859	   879#
BETRY0	   826	   887#
BETRY1	   836	   895#
BETRYC	   881#	   893	   897
BETSTR	   813#	   813	   821	   827	   830	   837	   845	   856	   862	   874	   881	   892
BLK	    13#	  1405	  1407	  1431
BREAK	   630	   653#	  1026	  1030	  1135	  1184	  1212	  1252	  1278	  1308	  1331
BREAK1	   659	   666#
BUF	    12#	  1407	  1413	  1429
BUFDTA	   108%	  1407	  1413	  1429
C	    11#
CIRC	    29#
CLRALR	   101	  1484	  1488	  1515#
CODE	    17#	   682	   686	   688	   690	   691	   692	   748	   976	   982	   984	   988	   992	   993
	   999	  1000	  1007	  1018	  1041	  1046	  1069	  1070	  1071	  1072	  1078	  1079	  1085	  1091
	  1104	  1107	  1110	  1122	  1127	  1130	  1136	  1137	  1148	  1171	  1172	  1177	  1185	  1189
	  1192	  1193	  1194	  1195	  1202	  1206	  1207	  1213	  1214	  1228	  1229	  1230	  1231	  1232
	  1233	  1239	  1240	  1241	  1270	  1271	  1275	  1301	  1303	  1318	  1323	  1327	  1332	  1333
	  1336	  1339	  1340	  1345	  1349	  1350	  1354	  1355	  1356	  1357	  1358	  1361	  1362	  1368
	  1369	  1370	  1371	  1372	  1375	  1376	  1381	  1383	  1384	  1385	  1389	  1391	  1392	  1393
COMDBF	  1339#	  1346
CPOPJ	   106%	   534
CPOPJ1	   106%	   554	   807	   977	   989	  1089	  1131	  1153	  1351	  1386	  1394	  1427	  1455	  1508
CS	    10#	  1411	  1412	  1413	  1414	  1415	  1419	  1421	  1423	  1425	  1429	  1431	  1436	  1439
	  1440	  1441	  1457	  1460	  1463	  1464	  1466	  1469	  1476	  1481	  1482	  1492	  1498	  1505
	  1516	  1518
CURMON	  1032#	  1032	  1082	  1100	  1244	  1254	  1296	  1310
CURYR	  1034#	  1034	  1083	  1101	  1245	  1298	  1314
DATBUF	   102	  1402#
DATCNC	   102	  1400#
DATCNT	   102	  1396#
DATDL1	   103	  1436#
DATDL2	  1439#	  1442
DATNMB	   101	  1412#	  1412	  1422	  1500
DATREF	   103	   698	  1461#	  1461
DATSIZ	    49#	  1402
DATTIM	   102	  1399#
DATTXT	   102	  1401#
DATWRN	   102	  1398#
DAY	   100	   551#	   551	   620	   635	   676	  1062	  1067	  1093	  1104	  1107	  1110	  1148	  1162
	  1261	  1294
DCNT	    15#
DIPRS	    37#
DOWAFC	  1250	  1268	  1276	  1290#
RCDATE - COMMON DATE STUFF FOR REMIND AND SEC	MACRO 12.5-46.0 21:52  2-MAR-81
RCDATE.MAC	19-JUN-78 15:07		Symbol cross reference

DOWAFE	  1004#	  1291	  1302	  1374
DOWAFN	   995	  1003#	  1382
DOWBFE	  1014#	  1203	  1292
DOWBFN	  1015#	  1360	  1390
DPOPJ	  1121	  1123	  1127#	  1348	  1380	  1388
DPOPJ1	  1113	  1130#	  1205	  1256	  1282	  1337
DPOPJ2	  1322	  1336#
DPTR	    14#	   683	   704	   714	   812	   834	   867	   884	   927	   949	   993	  1069	  1071	  1171
	  1192	  1194	  1228	  1230	  1232	  1357	  1371	  1457	  1458	  1459
DSPIND	    38#
DWDLN	   449#	   523	   523#	   528	   529	   632	   649
DWDLN3	   100	   529#
DWDTB	   100	   234#	   525	   526
FBEF	    27#	   711	   749	   793	   815	   833	   866	   889	   987	  1044	  1075	  1087	  1094	  1103
	  1133	  1143	  1154	  1166	  1178	  1187	  1217	  1225	  1236	  1248	  1262	  1273	  1285	  1290
	  1329
FEXCPT	    24#
FINDBF	  1341	  1348#
FINWAF	  1364	  1380#
FINWBF	  1378	  1388#
FL	     1#	   711	   749	   756	   785	   791	   793	   815	   833	   866	   889	   904	   912	   913
	   944	   987	  1044	  1075	  1087	  1094	  1103	  1133	  1143	  1154	  1166	  1178	  1187	  1217
	  1225	  1236	  1248	  1262	  1273	  1285	  1290	  1329
FNDDAT	   100	   757#	   757	   758	   787	   794	   800	   806	   905	   906	   911	   945	   946
FNEED1	    23#
FRDATE	    26#	   711	   756	   785	   791	   904	   913
FREF	    25#
FREF2	    28#
GENBET	   734	   808#
GENDAT	    99	   696#	  1473
GENDT1	   714#	   746	   753	   755	   759	   766	   772	   777	   782	   797	   877	   901	   903	   907
	   932
GENDT2	   704#	   803
GENEND	   717	   785#
GENFRV	   732	   744#
GENOR	   713#	   728
GENRDT	   736	   747#
GENREF	   729	   769#
GENRPR	   738	   784#
GENSAV	   749#	   767	   865
GENSTR	   730	   774#
GENSUB	   718	   719	   720	   721	   722	   723	   724	   725	   726	   727	   737	   761#
GENSVB	   750	   899#
GENTAB	   715	   717#
GENTDY	    99	   617#	  1449
GENUNT	   731	   779#
GENXCP	   733	   790#
GETNUM	   103	   679#	   747	   975	   979	   991	  1073	  1173	  1196	  1234	  1338	  1344	  1353	  1367
GTNM1	   683#	   689
GTNMFN	   685	   690#
IDF	    21#
INIDAT	   101	  1405#	  1454
INIDCS	  1411#
RCDATE - COMMON DATE STUFF FOR REMIND AND SEC	MACRO 12.5-46.0 21:52  2-MAR-81
RCDATE.MAC	19-JUN-78 15:07		Symbol cross reference

INIDT2	  1413#	  1434
ITEM	    16#	   714	   715	   949	   950
ITMAFT	    89#	    98	   491
ITMAND	    85#	    97	   484
ITMBEF	    88#	    98	   490
ITMBET	    84#	    97	   483
ITMDAY	    87#	    98	   486
ITMDOT	    76#	    96
ITMDOW	    77#	    96	   452	   453	   454	   455	   456	   457	   458	   471
ITMEND	    90#	    98	   488
ITMEXC	    83#	    97	   482
ITMFRV	    82#	    97	   481
ITMMN	    78#	    96	   459	   460	   461	   462	   463	   464	   465	   466	   467	   468	   469	   470
ITMMON	    86#	    98	   485
ITMNM1	    74#	    96	   489
ITMNM2	    75#	    96	   487
ITMNUM	    73#	    96	   492	   493	   494	   495	   496	   497	   498	   499	   500	   501	   502	   503
	   504	   505	   506	   507	   508	   509	   510	   511	   512	   513	   514	   515	   516	   517
	   518	   519	   520	   521	   522
ITMOR	    79#	    97	   472
ITMREF	    80#	    97	   473	   474	   475
ITMTDY	    91#	    98	   478
ITMTMR	    93#	    98	   480
ITMUNT	    81#	    97	   477
ITMYST	    92#	    98	   479
LEAP	   537#	   537	   548	   556
LSTDAT	   103	  1451#
LSTDT1	  1457#	  1510
LSTDT3	  1468	  1471	  1473#	  1490
LSTDTO	  1474	  1512#
LSTDTS	  1456	  1485	  1494	  1507#	  1509	  1513
LSTDTT	  1478	  1487	  1498#
LSTTDY	   103	  1449#
MAL	    33#
MALHSH	    47#
MDWCOM	  1293#	  1319
MDWDLN	   100	   528#
MDWNXM	  1246	  1260#	  1288
MDYNS1	  1105	  1108	  1115#
MDYNSD	  1102	  1106	  1110#	  1119	  1126
MONDAY	   553	   603#	  1061
MONMIN	  1049	  1056#
MONPTR	   103	   526#	   632
MONTAB	   546	   570#	   664
MONTB2	   585#	   666
MONTH	   100	   543#	   543	   623	   631	   671	   672	  1027	  1031	  1038	  1048	  1060	  1080	  1098
	  1114	  1118	  1138	  1145	  1149	  1159	  1185	  1189	  1213	  1242	  1255	  1257	  1281	  1283
	  1287	  1295	  1311	  1313	  1332
MTARG	   100	   700#	   700	   751	   761	   796	   802	   817	   818	   842	   848	   849	   854	   890
	   899	   929	   931	   935	  1465	  1472	  1489
NOXCP	   798	   805#
NOXCP1	   801	   806#
NUMF	    22#
RCDATE - COMMON DATE STUFF FOR REMIND AND SEC	MACRO 12.5-46.0 21:52  2-MAR-81
RCDATE.MAC	19-JUN-78 15:07		Symbol cross reference

NXTDAT	   101	  1419#	  1507
NXTDBK	  1423	  1429#
NXTDCS	  1421#	  1424
ORGREF	   102	  1397#
OUTNUM	   106%	   636	   640	  1501
OUTSIX	   106%	   633	   650
P	     8#	   545	   557	   559	   560	   626	   628	   629	   630	   633	   636	   640	   641	   642
	   644	   677	   679	   680	   693	   694	   695	   747	   765	   769	   774	   779	   786	   788
	   792	   795	   797	   799	   805	   808	   811	   813	   814	   822	   825	   835	   839	   851
	   860	   861	   862	   863	   864	   868	   870	   872	   873	   874	   875	   876	   908	   911
	   912	   914	   915	   918	   919	   922	   923	   926	   928	   929	   932	   934	   935	   936
	   937	   938	   939	   940	   941	   942	   943	   944	   946	   947	   948	   975	   979	   991
	   992	   995	   996	   999	  1004	  1010	  1012	  1015	  1021	  1023	  1024	  1026	  1028	  1029
	  1030	  1035	  1039	  1051	  1064	  1068	  1070	  1073	  1077	  1078	  1085	  1091	  1095	  1111
	  1115	  1117	  1124	  1127	  1128	  1130	  1135	  1136	  1139	  1141	  1145	  1149	  1150	  1152
	  1161	  1164	  1173	  1175	  1179	  1180	  1184	  1193	  1196	  1198	  1199	  1200	  1202	  1203
	  1204	  1206	  1208	  1212	  1219	  1220	  1222	  1223	  1229	  1231	  1234	  1238	  1239	  1241
	  1250	  1251	  1252	  1253	  1258	  1259	  1263	  1264	  1266	  1267	  1270	  1275	  1276	  1277
	  1278	  1279	  1280	  1299	  1301	  1302	  1303	  1304	  1307	  1308	  1309	  1312	  1316	  1318
	  1319	  1321	  1324	  1327	  1331	  1336	  1338	  1340	  1341	  1344	  1349	  1353	  1356	  1358
	  1360	  1361	  1364	  1367	  1370	  1372	  1374	  1375	  1378	  1381	  1382	  1383	  1389	  1390
	  1391	  1406	  1408	  1409	  1410	  1416	  1417	  1426	  1430	  1432	  1433	  1449	  1454	  1470
	  1473	  1484	  1488	  1495	  1501	  1506	  1507	  1512	  1517	  1519	  1520
P2	     9#
PDLSZ	    43#
PDLSZ2	    44#
PRDAT	    99	   644#	  1495
PRDAT1	   103	   629#	   644
RDAY1	  1084	  1091#
RDAY11	  1092#	  1146
RDBUF	   108%	  1406	  1410	  1432
REFRN0	   699#	   699	   705	   915	   917	   942
REFRNC	   706#	   706	   771	   914	   916	   943	   978	   994	  1025
REM	    32#
RSTERR	    39#
RTARG	  1085#	  1140
SETLDY	  1060#	  1095	  1180	  1199	  1263
SETMON	  1024#	  1077	  1175	  1198	  1238
SETPRI	    40#
SRCDAT	  1453#	  1453	  1462	  1475	  1493
STPSCN	    41#
STRTN0	   701#	   701	   707	   919	   921	   940
STRTNG	   708#	   708	   752	   762	   763	   776	   816	   822	   824	   832	   840	   841	   846	   847
	   853	   860	   872	   883	   902	   918	   920	   941
SUBDAF	   960	  1344#
SUBDAT	   765	   950#
SUBDAY	   954	   978#
SUBDBF	   959	  1338#
SUBDOW	   953	   991#
SUBDT1	   769	   774	   779	   825	   835	   851	   868	   870	   949#	  1342	  1365	  1379
SUBDYC	   980#	  1001
SUBLDC	  1176	  1180#	  1190
SUBLDW	   956	  1192#
RCDATE - COMMON DATE STUFF FOR REMIND AND SEC	MACRO 12.5-46.0 21:52  2-MAR-81
RCDATE.MAC	19-JUN-78 15:07		Symbol cross reference

SUBLDY	   958	  1171#
SUBLPR	   908#	   972
SUBLSD	  1172	  1183#
SUBLSW	  1195	  1211#
SUBLW1	  1199#	  1209	  1215
SUBMDW	   955	  1228#
SUBMDY	   957	  1069#
SUBMSD	  1079	  1098#
SUBMSW	  1240	  1318#
SUBRDT	   971	   975#
SUBSMD	  1072	  1132#
SUBSMW	  1233	  1270#
SUBSS1	  1151	  1159#
SUBSS2	  1150#	  1157	  1170
SUBSSD	  1137	  1148#
SUBSSW	  1271	  1327#
SUBSW1	  1320	  1323#
SUBSW2	  1319#	  1325	  1334
SUBTAB	   950	   952#
SUBWAF	   962	  1353#
SUBWBF	   961	  1367#
SVDPTR	    99	   704#	   704	   926	   927	   937	  1459
SYSERR	   627	   735	   740#	   770	   775	   780	   952	   963	   964	   965	   966	   967	   968	   969
	   970	   973	  1201	  1265	  1300
T1	     2#	   530	   531	   532	   533	   534	   535	   539	   540	   541	   542	   546	   550	   552
	   617	   618	   621	   624	   625	   629	   641	   646	   647	   653	   654	   655	   656	   657
	   658	   660	   662	   663	   667	   668	   670	   671	   679	   683	   684	   688	   691	   694
	   696	   697	   698	   699	   700	   701	   702	   703	   705	   706	   707	   708	   709	   710
	   744	   745	   748	   751	   752	   754	   757	   758	   761	   762	   763	   764	   771	   776
	   781	   787	   794	   795	   796	   799	   800	   805	   806	   809	   810	   816	   817	   818
	   819	   820	   823	   824	   827	   828	   830	   831	   832	   837	   841	   842	   844	   845
	   846	   847	   848	   849	   850	   853	   854	   856	   858	   881	   882	   883	   890	   891
	   892	   899	   900	   902	   905	   906	   909	   910	   916	   917	   920	   921	   924	   925
	   930	   931	   945	   976	   980	   981	   982	   985	   986	   988	   994	   998	  1003	  1004
	  1005	  1006	  1010	  1011	  1014	  1015	  1016	  1017	  1021	  1022	  1024	  1025	  1027	  1028
	  1031	  1032	  1033	  1034	  1036	  1037	  1038	  1040	  1041	  1042	  1043	  1046	  1048	  1049
	  1050	  1053	  1057	  1061	  1062	  1074	  1076	  1080	  1082	  1086	  1088	  1092	  1093	  1098
	  1100	  1115	  1124	  1125	  1132	  1134	  1138	  1139	  1141	  1159	  1160	  1162	  1163	  1165
	  1167	  1168	  1169	  1174	  1177	  1183	  1197	  1207	  1211	  1218	  1221	  1226	  1235	  1237
	  1242	  1244	  1247	  1249	  1251	  1253	  1258	  1260	  1261	  1272	  1274	  1277	  1279	  1293
	  1294	  1295	  1296	  1297	  1298	  1306	  1307	  1309	  1323	  1328	  1330	  1350	  1359	  1362
	  1363	  1373	  1376	  1377	  1385	  1393	  1453	  1460	  1461	  1462	  1463	  1464	  1465	  1472
	  1475	  1479	  1480	  1483	  1486	  1491	  1504	  1505	  1515	  1516	  1518
T2	     3#	   535	   536	   537	   538	   539	   542	   543	   544	   546	   547	   553	   555	   619
	   620	   622	   623	   648	   657	   669	   674	   675	   676	   680	   681	   687	   692	   693
	   839	   840	   978	   981	   983	   984	   986	   996	   997	   998	  1007	  1008	  1009	  1011
	  1018	  1019	  1020	  1022	  1035	  1036	  1039	  1040	  1042	  1060	  1061	  1063	  1065	  1066
	  1081	  1083	  1099	  1101	  1114	  1118	  1120	  1126	  1176	  1243	  1245	  1254	  1255	  1257
	  1266	  1280	  1281	  1283	  1287	  1304	  1305	  1306	  1310	  1311	  1313	  1314	  1315	  1419
	  1420	  1424	  1436	  1437	  1442	  1450	  1451	  1452	  1481	  1483	  1491	  1492	  1493
T3	     4#	   551	   552	   553	   558	   631	   632	   635	   638	   639	   648	   649	   664	   666
	   667	   669	   673	   674	  1438	  1439	  1482	  1486	  1500
T4	     5#
RCDATE - COMMON DATE STUFF FOR REMIND AND SEC	MACRO 12.5-46.0 21:52  2-MAR-81
RCDATE.MAC	19-JUN-78 15:07		Symbol cross reference

T5	     6#
TARGET	   764#	   764	   820	   831	   850	   882	   928	   930	   936	   980	   985	  1074	  1086	  1132
	  1174	  1183	  1197	  1211	  1218	  1221	  1235	  1247	  1272	  1328	  1339	  1359	  1363	  1373
	  1377
TCOMP	  1152	  1204	  1217#	  1321
TDYFLG	  1452#	  1452	  1467	  1477
TTY	    31#
UNTDT0	   703#	   703	   709	   923	   925	   938
UNTLDT	   710#	   710	   745	   754	   781	   828	   900	   922	   924	   939
WKDPTR	   103	   525#	   649
WRTBUF	   108%	  1443	  1470	  1506	  1519
XCPCNT	   697#	   697	   790	   908	   910	   947
YDCNV	    99	   530#	   626	  1096	  1111	  1150	  1181	  1200	  1264	  1299
YEAR	   100	   530#	   530	   625	   638	   656	   661	   663	  1029	  1033	  1052	  1056	  1065	  1081
	  1099	  1142	  1144	  1155	  1156	  1165	  1169	  1186	  1188	  1243	  1284	  1286	  1297	  1315
ZZ	   236#	   236	   237#	   237	   238#	   238	   239#	   239	   240#	   240	   241#	   241	   242#	   242
	   243#	   243	   244#	   244	   245#	   245	   246#	   246	   247#	   247	   248#	   248	   249#	   249
	   250#	   250	   251#	   251	   252#	   252	   253#	   253	   254#	   254	   255#	   255	   256#	   256
	   257#	   257	   258#	   258	   259#	   259	   260#	   260	   261#	   261	   262#	   262	   263#	   263
	   264#	   264	   265#	   265	   266#	   266	   267#	   267	   268#	   268	   269#	   269	   270#	   270
	   271#	   271	   272#	   272	   273#	   273	   274#	   274	   275#	   275	   276#	   276	   277#	   277
	   278#	   278	   279#	   279	   280#	   280	   281#	   281	   282#	   282	   283#	   283	   284#	   284
	   285#	   285	   286#	   286	   287#	   287	   288#	   288	   289#	   289	   290#	   290	   291#	   291
	   292#	   292	   293#	   293	   294#	   294	   295#	   295	   296#	   296	   297#	   297	   298#	   298
	   299#	   299	   300#	   300	   301#	   301	   302#	   302	   303#	   303	   304#	   304	   305#	   305
	   306#	   306	   307#	   307	   308#	   308	   309#	   309	   310#	   310	   311#	   311	   312#	   312
	   313#	   313	   314#	   314	   315#	   315	   316#	   316	   317#	   317	   318#	   318	   319#	   319
	   320#	   320	   321#	   321	   322#	   322	   323#	   323	   324#	   324	   325#	   325	   326#	   326
	   327#	   327	   328#	   328	   329#	   329	   330#	   330	   331#	   331	   332#	   332	   333#	   333
	   334#	   334	   335#	   335	   336#	   336	   337#	   337	   338#	   338	   339#	   339	   340#	   340
	   341#	   341	   342#	   342	   343#	   343	   344#	   344	   345#	   345	   346#	   346	   347#	   347
	   348#	   348	   349#	   349	   350#	   350	   351#	   351	   352#	   352	   353#	   353	   354#	   354
	   355#	   355	   356#	   356	   357#	   357	   358#	   358	   359#	   359	   360#	   360	   361#	   361
	   362#	   362	   363#	   363	   364#	   364	   365#	   365	   366#	   366	   367#	   367	   368#	   368
	   369#	   369	   370#	   370	   371#	   371	   372#	   372	   373#	   373	   374#	   374	   375#	   375
	   376#	   376	   377#	   377	   378#	   378	   379#	   379	   380#	   380	   381#	   381	   382#	   382
	   383#	   383	   384#	   384	   385#	   385	   386#	   386	   387#	   387	   388#	   388	   389#	   389
	   390#	   390	   391#	   391	   392#	   392	   393#	   393	   394#	   394	   395#	   395	   396#	   396
	   397#	   397	   398#	   398	   399#	   399	   400#	   400	   401#	   401	   402#	   402	   403#	   403
	   404#	   404	   405#	   405	   406#	   406	   407#	   407	   408#	   408	   409#	   409	   410#	   410
	   411#	   411	   412#	   412	   413#	   413	   414#	   414	   415#	   415	   416#	   416	   417#	   417
	   418#	   418	   419#	   419	   420#	   420	   421#	   421	   422#	   422	   423#	   423	   424#	   424
	   425#	   425	   426#	   426	   427#	   427	   428#	   428	   429#	   429	   430#	   430	   431#	   431
	   432#	   432	   433#	   433	   434#	   434	   435#	   435	   436#	   436	   437#	   437	   438#	   438
	   439#	   439	   440#	   440	   441#	   441	   442#	   442	   443#	   443	   444#	   444	   445#	   445
	   446#	   446	   447#	   447	   448#	   448	   571#	   572	   572#	   573	   573#	   574	   574#	   575
	   575#	   576	   576#	   577	   577#	   578	   578#	   579	   579#	   580	   580#	   581	   581#	   582
	   582#	   583	   583#	   586#	   587	   587#	   588	   588#	   589	   589#	   590	   590#	   591	   591#
	   592	   592#	   593	   593#	   594	   594#	   595	   595#	   596	   596#	   597	   597#	   598	   598#
ZZ1	   236#	   236	   237#	   237	   238#	   238	   239#	   239	   240#	   240	   241#	   241	   242#	   242
	   243#	   243	   244#	   244	   245#	   245	   246#	   246	   247#	   247	   248#	   248	   249#	   249
	   250#	   250	   251#	   251	   252#	   252	   253#	   253	   254#	   254	   255#	   255	   256#	   256
	   257#	   257	   258#	   258	   259#	   259	   260#	   260	   261#	   261	   262#	   262	   263#	   263
RCDATE - COMMON DATE STUFF FOR REMIND AND SEC	MACRO 12.5-46.0 21:52  2-MAR-81
RCDATE.MAC	19-JUN-78 15:07		Symbol cross reference

	   264#	   264	   265#	   265	   266#	   266	   267#	   267	   268#	   268	   269#	   269	   270#	   270	   271#
	   271	   272#	   272	   273#	   273	   274#	   274	   275#	   275	   276#	   276	   277#	   277	   278#
	   278	   279#	   279	   280#	   280	   281#	   281	   282#	   282	   283#	   283	   284#	   284	   285#
	   285	   286#	   286	   287#	   287	   288#	   288	   289#	   289	   290#	   290	   291#	   291	   292#
	   292	   293#	   293	   294#	   294	   295#	   295	   296#	   296	   297#	   297	   298#	   298	   299#
	   299	   300#	   300	   301#	   301	   302#	   302	   303#	   303	   304#	   304	   305#	   305	   306#
	   306	   307#	   307	   308#	   308	   309#	   309	   310#	   310	   311#	   311	   312#	   312	   313#
	   313	   314#	   314	   315#	   315	   316#	   316	   317#	   317	   318#	   318	   319#	   319	   320#
	   320	   321#	   321	   322#	   322	   323#	   323	   324#	   324	   325#	   325	   326#	   326	   327#
	   327	   328#	   328	   329#	   329	   330#	   330	   331#	   331	   332#	   332	   333#	   333	   334#
	   334	   335#	   335	   336#	   336	   337#	   337	   338#	   338	   339#	   339	   340#	   340	   341#
	   341	   342#	   342	   343#	   343	   344#	   344	   345#	   345	   346#	   346	   347#	   347	   348#
	   348	   349#	   349	   350#	   350	   351#	   351	   352#	   352	   353#	   353	   354#	   354	   355#
	   355	   356#	   356	   357#	   357	   358#	   358	   359#	   359	   360#	   360	   361#	   361	   362#
	   362	   363#	   363	   364#	   364	   365#	   365	   366#	   366	   367#	   367	   368#	   368	   369#
	   369	   370#	   370	   371#	   371	   372#	   372	   373#	   373	   374#	   374	   375#	   375	   376#
	   376	   377#	   377	   378#	   378	   379#	   379	   380#	   380	   381#	   381	   382#	   382	   383#
	   383	   384#	   384	   385#	   385	   386#	   386	   387#	   387	   388#	   388	   389#	   389	   390#
	   390	   391#	   391	   392#	   392	   393#	   393	   394#	   394	   395#	   395	   396#	   396	   397#
	   397	   398#	   398	   399#	   399	   400#	   400	   401#	   401	   402#	   402	   403#	   403	   404#
	   404	   405#	   405	   406#	   406	   407#	   407	   408#	   408	   409#	   409	   410#	   410	   411#
	   411	   412#	   412	   413#	   413	   414#	   414	   415#	   415	   416#	   416	   417#	   417	   418#
	   418	   419#	   419	   420#	   420	   421#	   421	   422#	   422	   423#	   423	   424#	   424	   425#
	   425	   426#	   426	   427#	   427	   428#	   428	   429#	   429	   430#	   430	   431#	   431	   432#
	   432	   433#	   433	   434#	   434	   435#	   435	   436#	   436	   437#	   437	   438#	   438	   439#
	   439	   440#	   440	   441#	   441	   442#	   442	   443#	   443	   444#	   444	   445#	   445	   446#
	   446	   447#	   447	   448#	   448
RCDATE - COMMON DATE STUFF FOR REMIND AND SEC	MACRO 12.5-46.0 21:52  2-MAR-81
RCDATE.MAC	19-JUN-78 15:07		Macro/Opdef cross reference

DATE	   617
DATEB	   163#	   236	   307	   378	   452
EXIT	   742
MSIZE	   563#	   571	   603
MSTIME	  1479
OUTCHI	   634	   637	  1496	  1497
OUTCHR	   645
OUTSTR	   740	  1498	  1499	  1502
TABLE	    60#	   234
WRD	    53#	   236	   237	   238	   239	   240	   241	   242	   243	   244	   245	   246	   247	   248
	   249	   250	   251	   252	   253	   254	   255	   256	   257	   258	   259	   260	   261	   262
	   263	   264	   265	   266	   267	   268	   269	   270	   271	   272	   273	   274	   275	   276
	   277	   278	   279	   280	   281	   282	   283	   284	   285	   286	   287	   288	   289	   290
	   291	   292	   293	   294	   295	   296	   297	   298	   299	   300	   301	   302	   303	   304
	   305	   306	   307	   308	   309	   310	   311	   312	   313	   314	   315	   316	   317	   318
	   319	   320	   321	   322	   323	   324	   325	   326	   327	   328	   329	   330	   331	   332
	   333	   334	   335	   336	   337	   338	   339	   340	   341	   342	   343	   344	   345	   346
	   347	   348	   349	   350	   351	   352	   353	   354	   355	   356	   357	   358	   359	   360
	   361	   362	   363	   364	   365	   366	   367	   368	   369	   370	   371	   372	   373	   374
	   375	   376	   377	   378	   379	   380	   381	   382	   383	   384	   385	   386	   387	   388
	   389	   390	   391	   392	   393	   394	   395	   396	   397	   398	   399	   400	   401	   402
	   403	   404	   405	   406	   407	   408	   409	   410	   411	   412	   413	   414	   415	   416
	   417	   418	   419	   420	   421	   422	   423	   424	   425	   426	   427	   428	   429	   430
	   431	   432	   433	   434	   435	   436	   437	   438	   439	   440	   441	   442	   443	   444
	   445	   446	   447	   448
X	   235#	   236	   237	   238	   239	   240	   241	   242	   243	   244	   245	   246	   247	   248
	   249	   250	   251	   252	   253	   254	   255	   256	   257	   258	   259	   260	   261	   262
	   263	   264	   265	   266	   267	   268	   269	   270	   271	   272	   273	   274	   275	   276
	   277	   278	   279	   280	   281	   282	   283	   284	   285	   286	   287	   288	   289	   290
	   291	   292	   293	   294	   295	   296	   297	   298	   299	   300	   301	   302	   303	   304
	   305	   306	   307#	   307	   308	   309	   310	   311	   312	   313	   314	   315	   316	   317
	   318	   319	   320	   321	   322	   323	   324	   325	   326	   327	   328	   329	   330	   331
	   332	   333	   334	   335	   336	   337	   338	   339	   340	   341	   342	   343	   344	   345
	   346	   347	   348	   349	   350	   351	   352	   353	   354	   355	   356	   357	   358	   359
	   360	   361	   362	   363	   364	   365	   366	   367	   368	   369	   370	   371	   372	   373
	   374	   375	   376	   377	   378#	   378	   379	   380	   381	   382	   383	   384	   385	   386
	   387	   388	   389	   390	   391	   392	   393	   394	   395	   396	   397	   398	   399	   400
	   401	   402	   403	   404	   405	   406	   407	   408	   409	   410	   411	   412	   413	   414
	   415	   416	   417	   418	   419	   420	   421	   422	   423	   424	   425	   426	   427	   428
	   429	   430	   431	   432	   433	   434	   435	   436	   437	   438	   439	   440	   441	   442
	   443	   444	   445	   446	   447	   448	   451#	   452	   453	   454	   455	   456	   457	   458
	   459	   460	   461	   462	   463	   464	   465	   466	   467	   468	   469	   470	   471	   472
	   473	   474	   475	   476	   477	   478	   479	   480	   481	   482	   483	   484	   485	   486
	   487	   488	   489	   490	   491	   492	   493	   494	   495	   496	   497	   498	   499	   500
	   501	   502	   503	   504	   505	   506	   507	   508	   509	   510	   511	   512	   513	   514
	   515	   516	   517	   518	   519	   520	   521	   522	   566#	   571	   586	   601#	   603 MASTER CREF  2-MAR-81 21:55
        SYMBOL CROSS REFERENCE

ACCUM	RSCAN	    76	    93	    96	    99	   102	   106	   110	   269	   270	   271	   274	   307#
ADJST1	RCDATE	  1117	  1208	  1225#	  1259	  1324
ADJUST	RCDATE	  1048#	  1054	  1058	  1179	  1227
BETAB1	RCDATE	   838	   870#	   896
BETAB2	RCDATE	   855	   857	   872#	   880
BETABT	RCDATE	   829	   866#	   888
BETCNT	RCDATE	   808#	   808	   810	   864	   876	   879	   887	   895
BETCOM	RCDATE	   825#	   885
BETEND	RCDATE	   814#	   814	   844	   858	   861	   873
BETPTR	RCDATE	   811#	   811	   812	   863	   875	   884
BETRTY	RCDATE	   843	   852	   859	   879#
BETRY0	RCDATE	   826	   887#
BETRY1	RCDATE	   836	   895#
BETRYC	RCDATE	   881#	   893	   897
BETSTR	RCDATE	   813#	   813	   821	   827	   830	   837	   845	   856	   862	   874	   881	   892
BIGDOM	RDATE	   423	   438#
BLK	RCDATE	    13#	  1405	  1407	  1431
BLK	RCMAL	    13#	    92	    94	   134
BLK	RCOM	    13#
BLK	RDATE	    13#	   731	   732	   738	   743	   749
BLK	RMAIN	    13#
BLK	RMAL	    13#	    92	   121	   122	   124	   125	   132	   133	   137	   142	   145	   163	   164
	   167	   169	   181	   205	   212
BLK	RRMD	    13#	   109	   114	   131	   132	   137	   139	   140	   146	   147	   151	   155	   157
	   161	   171	   177	   179	   198	   199	   210	   223	   244	   247	   251	   255	   271	   278
	   296	   310	   322	   329	   338	   355	   362	   367	   377	   401	   408
BLK	RSCAN	    13#
BLK	2	    13#	    93	    96	    97	    98	    99	   100	   103	   104	   150	   171	   189	   201
	   210	   219	   249	   251
BLKCLR	2	    87#	    90
BREAK	RCDATE	   630	   653#	  1026	  1030	  1135	  1184	  1212	  1252	  1278	  1308	  1331
BREAK1	RCDATE	   659	   666#
BUF	RCDATE	    12#	  1407	  1413	  1429
BUF	RCMAL	    12#	    94	    97	   134
BUF	RCOM	    12#
BUF	RDATE	    12#	   734	   739	   741	   745	   747	   751
BUF	RMAIN	    12#
BUF	RMAL	    12#	    95	   118	   120	   124	   127	   128	   130	   135	   137	   139	   145	   148
	   164	   169	   172	   181	   192	   193	   194	   195
BUF	RRMD	    12#	   112	   115	   132	   139	   149	   156	   159	   174	   176	   182	   183	   188
	   190	   196	   202	   212	   223	   235	   238	   239	   240	   241	   242	   246	   249	   253
	   257	   269	   281	   302	   308	   319	   321	   326	   327	   331	   333	   341	   355	   395
	   401
BUF	RSCAN	    12#
BUF	2	    12#	   105	   106	   148	   149	   152	   153	   156	   158	   159	   165	   171	   189
	   190	   191	   192	   193	   213	   215	   217	   254
BUFBLK	RDATE	    87%	   739	   741	   745
BUFBLK	RMAL	    79%	   118	   120	   139
BUFBLK	RRMD	    78%	   174	   176	   190	   319	   321	   333
BUFBLK	2	    73	    79#	    87	   149	   156	   171	   189	   254
MASTER CREF  2-MAR-81 21:55
        SYMBOL CROSS REFERENCE

BUFDTA	RCDATE	   108%	  1407	  1413	  1429
BUFDTA	RCMAL	    75%	    94	    97	   134
BUFDTA	RDATE	    87%	   734	   747	   751
BUFDTA	RMAL	    79%	    95	   124	   127	   128	   130	   135	   137	   145	   148	   164	   169	   172
	   181	   192	   193	   194	   195
BUFDTA	RRMD	    78%	   112	   115	   132	   139	   149	   156	   159	   182	   183	   188	   196	   202
	   212	   223	   235	   238	   239	   240	   241	   242	   246	   249	   253	   257	   302	   308
	   326	   327	   331	   341	   355	   395	   401
BUFDTA	2	    73	    82#	   190	   191	   192	   193	   213	   215	   217
BUFINI	RMAIN	    72%	   152
BUFINI	2	    73	    84#	    95
BUFIOW	2	    81#	   105	   106
BUFLNK	2	    80#	    88	   152	   158	   165
BUFNUM	2	    78#	   120	   147
BUFR0	2	    85	   123#	   147
BUFR1	2	   124	   129#
BUFR2	2	   130	   135#
BUFR3	2	   136	   141#
BUFR4	2	   142	   147#
C	RCDATE	    11#
C	RCMAL	    11#
C	RCOM	    11#
C	RDATE	    11#
C	RMAIN	    11#
C	RMAL	    11#
C	RRMD	    11#	   100	   103
C	RSCAN	    11#	   302	   303
C	2	    11#
CANCL	RMAIN	   381	   480#
CHANG	RMAIN	   379	   482#
CHGDAT	RDATE	    93	  1142#
CHGDAT	RMAIN	    86%	   482
CHGFIL	RMAIN	    78%	   485
CHGFIL	RRMD	    72	   263#
CHGMAL	RMAIN	    81%	   486
CHGMAL	RMAL	    72	   198#
CHGREM	RMAIN	    78%	   483
CHGREM	RRMD	    72	   405#
CHGTNW	RRMD	   277	   288#
CIRC	RCDATE	    29#
CIRC	RCMAL	    29#
CIRC	RCOM	    29#
CIRC	RDATE	    29#
CIRC	RMAIN	    29#
CIRC	RMAL	    29#
CIRC	RRMD	    29#
CIRC	RSCAN	    29#
CIRC	2	    29#
CLRALR	RCDATE	   101	  1484	  1488	  1515#
CMD	RDATE	    83%	   166	   203	   255	   678	   684	   720	  1020	  1082	  1086	  1093	  1097	  1106
MASTER CREF  2-MAR-81 21:55
        SYMBOL CROSS REFERENCE

CMD	RDATE	  1111	  1124	  1128	  1135	  1141	  1216	  1251	  1279	  1288
CMD	RMAIN	    88	   154#	   162	   210	   491
CMD	RMAL	    75%	   105	   111	   115	   140	   170	   183	   197	   219	   222
CMD	RRMD	    81%	   191	   207	   225	   259	   262	   286	   317	   334	   357	   380	   388	   423
	   427
CMDSCL	RMAIN	   168#	   194
CMDTB0	RMAIN	   332	   337#
CMDTB1	RMAIN	   333	   385#
CMDTB2	RMAIN	   334	   405#
CMDTB3	RMAIN	   335	   437#
CMDTB4	RMAIN	   336	   449#
COD10C	RDATE	   647#	   663
CODE	RCDATE	    17#	   682	   686	   688	   690	   691	   692	   748	   976	   982	   984	   988	   992
	   993	   999	  1000	  1007	  1018	  1041	  1046	  1069	  1070	  1071	  1072	  1078	  1079	  1085
	  1091	  1104	  1107	  1110	  1122	  1127	  1130	  1136	  1137	  1148	  1171	  1172	  1177	  1185
	  1189	  1192	  1193	  1194	  1195	  1202	  1206	  1207	  1213	  1214	  1228	  1229	  1230	  1231
	  1232	  1233	  1239	  1240	  1241	  1270	  1271	  1275	  1301	  1303	  1318	  1323	  1327	  1332
	  1333	  1336	  1339	  1340	  1345	  1349	  1350	  1354	  1355	  1356	  1357	  1358	  1361	  1362
	  1368	  1369	  1370	  1371	  1372	  1375	  1376	  1381	  1383	  1384	  1385	  1389	  1391	  1392
	  1393
CODE	RCMAL	    17#
CODE	RCOM	    17#
CODE	RDATE	    17#	   109	   116	   119	   124	   272	   281	   297	   314	   319	   324	   341	   360
	   373	   386	   391	   411	   412	   413	   456	   464	   468	   490	   494	   510	   524	   529
	   581	   588	   604	   856	   861	   862	   864	   901	   914	   922	   923	   951	   954	   967
	  1015
CODE	RMAIN	    17#
CODE	RMAL	    17#
CODE	RRMD	    17#
CODE	RSCAN	    17#
CODE	2	    17#
CODE1	RDATE	   537#
CODE10	RDATE	   532	   644#
CODE2	RDATE	   447#	   506
CODE3	RDATE	   548#
CODE3B	RDATE	   554	   557#
CODE3C	RDATE	   559#	   613
CODE3S	RDATE	   536	   547#
CODE4	RDATE	   609#
CODE5	RDATE	   415#	   462	   467
CODE5B	RDATE	   421	   424#
CODE5C	RDATE	   426#	   628
CODE5S	RDATE	   414#	   505	   596
CODE6	RDATE	   624#
CODE7	RDATE	   501	   655#
CODE8	RDATE	   503	   636#
CODE8C	RDATE	   639#	   658
CODE9	RDATE	   534	   660#
COMBUF	RDATE	   162	   194#
COMCRL	RDATE	   830	   978#
MASTER CREF  2-MAR-81 21:55
        SYMBOL CROSS REFERENCE

COMDBF	RCDATE	  1339#	  1346
COMTIM	RDATE	   774	   781#
CPOPJ	RCDATE	   106%	   534
CPOPJ	RCOM	    72	    86	    93	   111#
CPOPJ	RDATE	    81%	   861
CPOPJ	RSCAN	   112	   117#
CPOPJ1	RCDATE	   106%	   554	   807	   977	   989	  1089	  1131	  1153	  1351	  1386	  1394	  1427	  1455
	  1508
CPOPJ1	RCOM	    72	   110#
CPOPJ1	RDATE	    81%	   523
CPOPJ1	RMAL	    83%	   159
CPOPJ1	RRMD	    83%	   128
CPOPJ1	RSCAN	   100	   116#
CPOPJ1	2	    72%	   234
CPRML	RCMAL	    72	    86#
CPRML	RMAL	    77%	   221
CRTREM	2	   204	   208#
CS	RCDATE	    10#	  1411	  1412	  1413	  1414	  1415	  1419	  1421	  1423	  1425	  1429	  1431	  1436
	  1439	  1440	  1441	  1457	  1460	  1463	  1464	  1466	  1469	  1476	  1481	  1482	  1492	  1498
	  1505	  1516	  1518
CS	RCMAL	    10#
CS	RCOM	    10#
CS	RDATE	    10#	   100	   113	   149	   151	   190	   191	   192	   193	   693	   707	   751	   752
	   753	   755	   765	   771	   787	   796	   812	   816	  1024	  1034	  1038	  1052	  1065	  1067
	  1075	  1116	  1118	  1126	  1133	  1145	  1155	  1156	  1161	  1167	  1170	  1176	  1178	  1179
	  1186	  1187	  1189	  1192	  1195	  1199	  1200	  1207	  1208	  1212	  1214	  1218	  1219	  1221
	  1230	  1233	  1254	  1255	  1257	  1259	  1264
CS	RMAIN	    10#	   161
CS	RMAL	    10#
CS	RRMD	    10#	    97	    98	   379	   381
CS	RSCAN	    10#	   265	   267	   268	   275	   278	   280	   281	   282	   288	   290	   292	   303
CS	2	    10#
CSAVE	RDATE	  1145#	  1145	  1155	  1167	  1178	  1186	  1189	  1199	  1207	  1212
CSNUM	RSCAN	   120#	   173	   174	   175	   176	   177	   178	   179	   180	   181	   182	   275	   292
CTAB	RSCAN	   123#	   125	   126	   127	   128	   129	   130	   131	   132	   137	   138	   139	   140
	   141	   142	   143	   144	   145	   146	   147	   148	   149	   150	   151	   152	   153	   154
	   157	   158	   159	   160	   161	   162	   163	   164	   165	   166	   167	   168	   169	   170
	   171	   173	   174	   175	   176	   177	   178	   179	   180	   181	   182	   184	   185	   186
	   187	   188	   189	   190	   192	   193	   194	   195	   196	   197	   198	   199	   200	   201
	   202	   203	   204	   205	   206	   207	   208	   209	   210	   211	   212	   213	   214	   215
	   216	   217	   219	   220	   221	   222	   223	   224	   226	   227	   228	   229	   230	   231
	   232	   233	   234	   235	   236	   237	   238	   239	   240	   241	   242	   243	   244	   245
	   246	   247	   248	   249	   250	   251	   253	   254	   255	   256	   257	   303
CURMON	RCDATE	  1032#	  1032	  1082	  1100	  1244	  1254	  1296	  1310
CURTBL	RMAIN	   164#	   164	   170	   181	   186	   188
CURYR	RCDATE	  1034#	  1034	  1083	  1101	  1245	  1298	  1314
D1PRLP	RDATE	   826#	   891	   973	   977	   984	   987	   990	   993	   997	  1000	  1003	  1006	  1009
	  1012
D2PRLP	RDATE	   890#	   896	   906	   911	  1017
DATBET	RDATE	   236	   382#
MASTER CREF  2-MAR-81 21:55
        SYMBOL CROSS REFERENCE

DATBUF	RCDATE	   102	  1402#
DATBUF	RDATE	    76%	   154	   161	   194	   206	   208	   252	  1220
DATCNC	RCDATE	   102	  1400#
DATCNC	RDATE	    79%	   718
DATCNL	RDATE	    93	  1113#
DATCNL	RMAIN	    86%	   480
DATCNT	RCDATE	   102	  1396#
DATCNT	RDATE	    77%	   158	   192	   193	   752	   754	   809	  1157	  1159	  1163	  1222	  1231	  1232
	  1234
DATCRF	RDATE	   300#	   318
DATDAY	RDATE	   239	   441#
DATDIS	RDATE	    92	  1018#
DATDIS	RMAIN	    85%	   478
DATDL1	RCDATE	   103	  1436#
DATDL1	RDATE	    79%	  1092	  1164
DATDL2	RCDATE	  1439#	  1442
DATDOW	RDATE	   229	   630#
DATDY1	RDATE	   497	   526#
DATDY2	RDATE	   527	   575#
DATDY3	RDATE	   578	   593#
DATEN1	RDATE	   242	   617#
DATEND	RDATE	   228	   268#
DATEXC	RDATE	   235	   371#
DATFN1	RDATE	   170#	  1154
DATFND	RDATE	   168#	   189	  1091	  1115	  1132	  1139	  1144
DATINS	RDATE	   719#	   736
DATLNG	RDATE	   282	   290#	   298	   315	   325	   342	   361	   374	   387	   392	   417	   425	   428
	   449	   471	   483	   486	   539	   544	   550	   558	   561	   564	   568	   611	   626	   638
	   646	   651	   657	   662
DATLPR	RDATE	   243	   321#
DATMNM	RDATE	   230	   454#
DATMNU	RDATE	   459	   464#
DATMON	RDATE	   238	   408#
DATNBK	RDATE	   726	   738#
DATNM1	RDATE	   226	   579#
DATNM2	RDATE	   227	   598#
DATNM3	RDATE	   603	   615#
DATNMB	RCDATE	   101	  1412#	  1412	  1422	  1500
DATNMB	RDATE	    77%	   175	   181	   759	  1028	  1151
DATNUM	RDATE	   225	   488#
DATNXT	RDATE	    93	  1247#
DATNXT	RMAIN	    86%	   479
DATOR	RDATE	   231	   279#
DATREF	RCDATE	   103	   698	  1461#	  1461
DATREF	RDATE	    79%	   197	   215	  1117	  1258
DATRFN	RDATE	   232	   294#
DATRPR	RDATE	   244	   338#
DATSAV	RDATE	  1175#	  1175	  1185	  1191
DATSIZ	RCDATE	    49#	  1402
DATSIZ	RCMAL	    49#
MASTER CREF  2-MAR-81 21:55
        SYMBOL CROSS REFERENCE

DATSIZ	RCOM	    49#
DATSIZ	RDATE	    49#	   210
DATSIZ	RMAIN	    49#
DATSIZ	RMAL	    49#
DATSIZ	RRMD	    49#
DATSIZ	RSCAN	    49#
DATSIZ	2	    49#
DATTDY	RDATE	   245	   357#
DATTIM	RCDATE	   102	  1399#
DATTIM	RDATE	    77%	   686	   692	   695	   701	   703
DATTIM	RRMD	    85%	   425
DATTMR	RDATE	   247	   369#
DATTXT	RCDATE	   102	  1401#
DATTXT	RDATE	    77%	   716	   717
DATUNC	RDATE	    93	  1130#
DATUNC	RMAIN	    86%	   481
DATUNT	RDATE	   233	   312#
DATWRN	RCDATE	   102	  1398#
DATWRN	RDATE	    77%	   705	   711	  1162
DATYST	RDATE	   246	   366#
DAY	RCDATE	   100	   551#	   551	   620	   635	   676	  1062	  1067	  1093	  1104	  1107	  1110	  1148
	  1162	  1261	  1294
DAY	RDATE	    78%	   412	   418	   444	   450	   461	   464	   490	   540	   551	   581	   594	   633
	   639	   647
DBAFCM	RDATE	   950#	   959	   962
DCMIII	RDATE	   535#	   590
DCNT	RCDATE	    15#
DCNT	RCMAL	    15#
DCNT	RCOM	    15#
DCNT	RDATE	    15#	   210	   282	   298	   315	   325	   342	   361	   374	   387	   392	   417	   425
	   428	   449	   471	   483	   486	   539	   544	   550	   558	   561	   564	   568	   611	   626
	   638	   646	   651	   657	   662
DCNT	RMAIN	    15#
DCNT	RMAL	    15#
DCNT	RRMD	    15#
DCNT	RSCAN	    15#
DCNT	2	    15#
DELDAT	RDATE	    92	  1089#
DELDAT	RMAIN	    85%	   460
DELETE	RMAIN	   374	   460#
DELFIL	RMAIN	    78%	   463
DELFIL	RRMD	    72	   227#
DELMAL	RMAIN	    81%	   464
DELMAL	RMAL	    72	   185#
DELREM	RMAIN	    78%	   461
DELREM	RRMD	    72	   359#
DEPFIN	RDATE	   480	   485#
DEPNUM	RDATE	    94	   362	   431	   451	   474	   478#	   484	   541	   640	   648
DESDAT	RDATE	   170#	   170	   176	   182	   184
DIPRS	RCDATE	    37#
MASTER CREF  2-MAR-81 21:55
        SYMBOL CROSS REFERENCE

DIPRS	RCMAL	    37#
DIPRS	RCOM	    37#
DIPRS	RDATE	    37#
DIPRS	RMAIN	    37#	   175	   373	   374	   375	   376	   377	   378	   379	   380	   381	   382	   383
	   384
DIPRS	RMAL	    37#
DIPRS	RRMD	    37#
DIPRS	RSCAN	    37#
DIPRS	2	    37#
DISP	RMAIN	   384	   478#
DLFL1	RRMD	   250	   253#
DLFL2	RRMD	   248#	   252
DLRM1	RRMD	   365#	   382
DLRMBK	RRMD	   392	   400#
DLRMNN	RRMD	   370	   383#	   414
DONXT	RDATE	  1271	  1278#
DOWAFC	RCDATE	  1250	  1268	  1276	  1290#
DOWAFE	RCDATE	  1004#	  1291	  1302	  1374
DOWAFN	RCDATE	   995	  1003#	  1382
DOWBFE	RCDATE	  1014#	  1203	  1292
DOWBFN	RCDATE	  1015#	  1360	  1390
DOWTBG	RDATE	   556	   571#
DPLDW1	RDATE	   939#	   948
DPLDY1	RDATE	   929	   932#
DPMDW2	RDATE	   938	   942#	   949
DPMDY2	RDATE	   900	   908#
DPMDY3	RDATE	   909#	   933	   940
DPMDY4	RDATE	   904#	   930	   943
DPOPJ	RCDATE	  1121	  1123	  1127#	  1348	  1380	  1388
DPOPJ1	RCDATE	  1113	  1130#	  1205	  1256	  1282	  1337
DPOPJ2	RCDATE	  1322	  1336#
DPRAFC	RDATE	   963	   976#
DPRAND	RDATE	   851	  1005#
DPRBET	RDATE	   850	  1002#
DPRBFC	RDATE	   960	   972#
DPRDAF	RDATE	   841	   962#
DPRDAT	RDATE	   852	  1014#
DPRDAY	RDATE	   835	   887#
DPRDBF	RDATE	   840	   959#
DPRDOT	RDATE	   833	   883#
DPRDOW	RDATE	   834	   893#
DPRFRV	RDATE	   848	   995#
DPRLDW	RDATE	   837	   945#
DPRLDY	RDATE	   839	   927#
DPRLPR	RDATE	   853	  1008#
DPRMDW	RDATE	   836	   935#
DPRMDY	RDATE	   838	   898#
DPRNM1	RDATE	   856#	   915
DPRNUM	RDATE	   857	   861#	   926	   968
DPROR	RDATE	   844	   983#
MASTER CREF  2-MAR-81 21:55
        SYMBOL CROSS REFERENCE

DPRREF	RDATE	   845	   986#
DPRRPR	RDATE	   854	  1011#
DPRSTR	RDATE	   846	   989#
DPRUNT	RDATE	   847	   992#
DPRWAF	RDATE	   843	   975#
DPRWBF	RDATE	   842	   971#
DPRXCP	RDATE	   849	   999#
DPTR	RCDATE	    14#	   683	   704	   714	   812	   834	   867	   884	   927	   949	   993	  1069	  1071
	  1171	  1192	  1194	  1228	  1230	  1232	  1357	  1371	  1457	  1458	  1459
DPTR	RCMAL	    14#
DPTR	RCOM	    14#
DPTR	RDATE	    14#	   154	   155	   194	   195	   208	   209	   272	   281	   297	   314	   319	   324
	   341	   360	   373	   386	   391	   416	   424	   427	   448	   470	   482	   485	   538	   543
	   549	   557	   560	   563	   567	   610	   625	   637	   645	   650	   656	   661	   825	   826
	   899	   918	   922	   928	   937	   947	  1024	  1025	  1026	  1118	  1119	  1120	  1259	  1260
	  1261
DPTR	RMAIN	    14#
DPTR	RMAL	    14#
DPTR	RRMD	    14#
DPTR	RSCAN	    14#
DPTR	2	    14#
DSPIND	RCDATE	    38#
DSPIND	RCMAL	    38#
DSPIND	RCOM	    38#
DSPIND	RDATE	    38#
DSPIND	RMAIN	    38#	   177	   400	   401	   402	   403	   404	   429	   430	   431	   432	   433	   434
	   435	   436	   446	   447	   448	   452
DSPIND	RMAL	    38#
DSPIND	RRMD	    38#
DSPIND	RSCAN	    38#
DSPIND	2	    38#
DTCMI	RDATE	   465#	   495
DTCMII	RDATE	   504#	   586
DTCMIV	RDATE	   528#	   634
DTCMV	RDATE	   445	   498#
DTEST	RDATE	    92	   664#
DTEST	RMAIN	    85%	   477
DTEST1	RDATE	   667#	   679
DTSBII	RDATE	   504	   508#	   535	   606	   621
DUPFIL	RRMD	   170	   206#	   290
DWDLN	RCDATE	   449#	   523	   523#	   528	   529	   632	   649
DWDLN3	RCDATE	   100	   529#
DWDLN3	RDATE	    78%	   106	   108	   109
DWDTB	RCDATE	   100	   234#	   525	   526
DWDTB	RDATE	    78%	   103
ENDMAL	RCMAL	    95	   135	   146#
ENDUSR	RCMAL	   107	   113#
ERR0	RMAIN	   206	   212#	   247
ERR1	RMAIN	   220#	   242
ERR2	RMAIN	   231#	   251
MASTER CREF  2-MAR-81 21:55
        SYMBOL CROSS REFERENCE

ERROR	RMAIN	   169	   195#
ERRTBL	RMAIN	   165#	   165	   189	   203
EVOTHE	RDATE	   898	   922#	   935
FBEF	RCDATE	    27#	   711	   749	   793	   815	   833	   866	   889	   987	  1044	  1075	  1087	  1094
	  1103	  1133	  1143	  1154	  1166	  1178	  1187	  1217	  1225	  1236	  1248	  1262	  1273	  1285
	  1290	  1329
FBEF	RCMAL	    27#
FBEF	RCOM	    27#
FBEF	RDATE	    27#	   216	   294	   312	   322	   338	   371	   383	   433	   641	   652
FBEF	RMAIN	    27#
FBEF	RMAL	    27#
FBEF	RRMD	    27#
FBEF	RSCAN	    27#
FBEF	2	    27#
FEXCPT	RCDATE	    24#
FEXCPT	RCMAL	    24#
FEXCPT	RCOM	    24#
FEXCPT	RDATE	    24#	   216	   328	   331	   332	   333	   371	   375
FEXCPT	RMAIN	    24#
FEXCPT	RMAL	    24#
FEXCPT	RRMD	    24#
FEXCPT	RSCAN	    24#
FEXCPT	2	    24#
FILDAT	RDATE	   152	   188#
FILDT1	RDATE	   173	   175#	   180	   185
FILNUM	2	    84#	    84	    93	    96
FINDAT	RDATE	   269	   275#
FINDBF	RCDATE	  1341	  1348#
FINWAF	RCDATE	  1364	  1380#
FINWBF	RCDATE	  1378	  1388#
FL	RCDATE	     1#	   711	   749	   756	   785	   791	   793	   815	   833	   866	   889	   904	   912
	   913	   944	   987	  1044	  1075	  1087	  1094	  1103	  1133	  1143	  1154	  1166	  1178	  1187
	  1217	  1225	  1236	  1248	  1262	  1273	  1285	  1290	  1329
FL	RCMAL	     1#
FL	RCOM	     1#
FL	RDATE	     1#	   101	   168	   216	   217	   268	   279	   283	   294	   295	   300	   302	   304
	   305	   312	   321	   322	   327	   328	   332	   333	   338	   358	   371	   375	   382	   383
	   385	   393	   395	   397	   408	   432	   433	   434	   441	   454	   488	   579	   598	   617
	   630	   641	   652	   709	   767	   776	   791	   800	   824	   890	   978	  1197	  1249	  1267
	  1278
FL	RMAIN	     1#
FL	RMAL	     1#
FL	RRMD	     1#	   365	   411
FL	RSCAN	     1#	    73	   264	   283	   294
FL	2	     1#
FNDBF1	2	   149#	   154
FNDBF2	2	   156#	   160
FNDBUF	2	   148#	   169	   176	   187
FNDDAT	RCDATE	   100	   757#	   757	   758	   787	   794	   800	   806	   905	   906	   911	   945	   946
FNDDAT	RDATE	    78%	   669
MASTER CREF  2-MAR-81 21:55
        SYMBOL CROSS REFERENCE

FNDMTY	RDATE	   724	   727	   809#
FNEED1	RCDATE	    23#
FNEED1	RCMAL	    23#
FNEED1	RCOM	    23#
FNEED1	RDATE	    23#	   217	   268	   279	   283	   295	   300	   305	   321	   338	   358	   371	   375
	   382	   385	   393	   395	   397	   408	   433	   441	   454	   488	   579	   598	   617	   630
	  1249	  1267	  1278
FNEED1	RMAIN	    23#
FNEED1	RMAL	    23#
FNEED1	RRMD	    23#
FNEED1	RSCAN	    23#
FNEED1	2	    23#
FRDATE	RCDATE	    26#	   711	   756	   785	   791	   904	   913
FRDATE	RCMAL	    26#
FRDATE	RCOM	    26#
FRDATE	RDATE	    26#	   300	   302	   432	   824	   890	   978
FRDATE	RMAIN	    26#
FRDATE	RMAL	    26#
FRDATE	RRMD	    26#
FRDATE	RSCAN	    26#
FRDATE	2	    26#
FREF	RCDATE	    25#
FREF	RCMAL	    25#
FREF	RCOM	    25#
FREF	RDATE	    25#	   216	   294	   300	   304	   312	   322	   338	   371	   383	   434
FREF	RMAIN	    25#
FREF	RMAL	    25#
FREF	RRMD	    25#
FREF	RSCAN	    25#
FREF	2	    25#
FREF2	RCDATE	    28#
FREF2	RCMAL	    28#
FREF2	RCOM	    28#
FREF2	RDATE	    28#	   216	   294	   312	   328	   334	   371	   385	   393	   395	   397	   434
FREF2	RMAIN	    28#
FREF2	RMAL	    28#
FREF2	RRMD	    28#
FREF2	RSCAN	    28#
FREF2	2	    28#
GENBET	RCDATE	   734	   808#
GENDAT	RCDATE	    99	   696#	  1473
GENDAT	RDATE	    76%	   667	  1102	  1123	  1262
GENDT1	RCDATE	   714#	   746	   753	   755	   759	   766	   772	   777	   782	   797	   877	   901	   903
	   907	   932
GENDT2	RCDATE	   704#	   803
GENEND	RCDATE	   717	   785#
GENFRV	RCDATE	   732	   744#
GENOR	RCDATE	   713#	   728
GENRDT	RCDATE	   736	   747#
GENREF	RCDATE	   729	   769#
MASTER CREF  2-MAR-81 21:55
        SYMBOL CROSS REFERENCE

GENRPR	RCDATE	   738	   784#
GENSAV	RCDATE	   749#	   767	   865
GENSTR	RCDATE	   730	   774#
GENSUB	RCDATE	   718	   719	   720	   721	   722	   723	   724	   725	   726	   727	   737	   761#
GENSVB	RCDATE	   750	   899#
GENTAB	RCDATE	   715	   717#
GENTDY	RCDATE	    99	   617#	  1449
GENTDY	RDATE	    76%	   212	   357	   366	   369	   665	  1100	  1121	  1247
GENUNT	RCDATE	   731	   779#
GENXCP	RCDATE	   733	   790#
GETNM1	RDATE	   888	   894	   909	   913#
GETNUM	RCDATE	   103	   679#	   747	   975	   979	   991	  1073	  1173	  1196	  1234	  1338	  1344	  1353
	  1367
GETNUM	RDATE	    79%	   913	   950	   966	  1014
GETREM	RRMD	    78%	   144
GETREM	2	    74	   203	   224#	   240
GETRM1	2	   229	   236#
GETTRY	2	   225#	   225	   236
GETTY	RRMD	    76%	    96	   104
GETTY	RSCAN	    71	   266	   279	   291	   300#
GMIN	RDATE	   792	   796#
GMIN1	RDATE	   798	   802#
GOTBUF	2	   157	   165#
GTIME	RDATE	    94	   689	   698	   765#	  1172	  1182
GTNM1	RCDATE	   683#	   689
GTNMFN	RCDATE	   685	   690#
GTNS	RDATE	   778	   785#	   788	   801
GTREL	RDATE	   768	   787#
GTS0	RDATE	   783#	   807
GTS1	RDATE	   766	   784#
HOURS	RDATE	   789#	   789	   794	   802
IDF	RCDATE	    21#
IDF	RCMAL	    21#
IDF	RCOM	    21#
IDF	RDATE	    21#
IDF	RMAIN	    21#
IDF	RMAL	    21#
IDF	RRMD	    21#
IDF	RSCAN	    21#	    73	   264	   283
IDF	2	    21#
ILLBET	RDATE	   384	   400#
ILLDAT	RDATE	   234	   237	   240	   241	   250#	   296	   313	   359	   409	   442	   455	   473	   489
	   513	   576	   580	   592	   599	   608	   616	   618	   623	   631
ILLDCM	RDATE	   252#	   277	   288	   292	   310	   347	   351	   355	   380	   402	   406	   440	   573
ILLEXC	RDATE	   372	   378#
ILLLPR	RDATE	   323	   345#
ILLNAN	RDATE	   390	   404#
ILLOR	RDATE	   280	   286#
ILLREF	RDATE	   303	   308#
ILLRPR	RDATE	   340	   349#
MASTER CREF  2-MAR-81 21:55
        SYMBOL CROSS REFERENCE

ILLUMP	RDATE	   271	   353#
ILLWRT	2	   178	   183#
INC1	RSCAN	    87#	    87	    95	   104
INC2	RSCAN	    90#	    90	    98	   108
INIDAT	RCDATE	   101	  1405#	  1454
INIDAT	RDATE	    77%	   171	   722	  1081	  1250
INIDCS	RCDATE	  1411#
INIDT2	RCDATE	  1413#	  1434
INIREM	2	   206	   210#
INSDAT	RDATE	    92	   685#
INSDAT	RMAIN	    85%	   455
INSDT1	RDATE	    94	   719	   722#	  1166
INSERT	RMAIN	   373	   455#
INSF1	RRMD	   171#	   204
INSFIL	RMAIN	    78%	   458
INSFIL	RRMD	    72	   165#
INSMAL	RMAIN	    81%	   459
INSMAL	RMAL	    72	    84#
INSREM	RMAIN	    78%	   456
INSREM	RRMD	    72	   293#
INSRM1	RRMD	   305	   313#
INSRM2	RRMD	   304#	   307
INSRM3	RRMD	   301#	   311
INWD	2	    99	   105#	   173
IRMNBK	RRMD	   309	   319#
ITEM	RCDATE	    16#	   714	   715	   949	   950
ITEM	RCMAL	    16#
ITEM	RCOM	    16#
ITEM	RDATE	    16#	   108	   117	   123	   222	   317	   389	   458	   466	   492	   493	   496	   500
	   502	   508	   512	   516	   522	   526	   531	   533	   575	   584	   587	   591	   602	   615
	   826	   827	   828	   831
ITEM	RMAIN	    16#
ITEM	RMAL	    16#
ITEM	RRMD	    16#
ITEM	RSCAN	    16#
ITEM	2	    16#
ITMAFT	RCDATE	    89#	    98	   491
ITMAFT	RDATE	    91	   241#	   502	   531
ITMAND	RCDATE	    85#	    97	   484
ITMAND	RDATE	    90	   237#	   389
ITMBEF	RCDATE	    88#	    98	   490
ITMBEF	RDATE	    91	   240#	   500	   533
ITMBET	RCDATE	    84#	    97	   483
ITMBET	RDATE	    90	   236#
ITMDAY	RCDATE	    87#	    98	   486
ITMDAY	RDATE	    91	   239#	   496	   584	   615
ITMDOT	RCDATE	    76#	    96
ITMDOT	RDATE	    89	   142	   228#
ITMDOW	RCDATE	    77#	    96	   452	   453	   454	   455	   456	   457	   458	   471
ITMDOW	RDATE	    89	   229#	   526	   587	   602
MASTER CREF  2-MAR-81 21:55
        SYMBOL CROSS REFERENCE

ITMEND	RCDATE	    90#	    98	   488
ITMEND	RDATE	    91	   242#
ITMEXC	RCDATE	    83#	    97	   482
ITMEXC	RDATE	    90	   235#
ITMFRV	RCDATE	    82#	    97	   481
ITMFRV	RDATE	    90	   234#	   317
ITMLPR	RDATE	   143	   243#
ITMMN	RCDATE	    78#	    96	   459	   460	   461	   462	   463	   464	   465	   466	   467	   468	   469
	   470
ITMMN	RDATE	    89	   230#	   492	   522
ITMMON	RCDATE	    86#	    98	   485
ITMMON	RDATE	    90	   238#	   512	   516	   575	   591
ITMNM1	RCDATE	    74#	    96	   489
ITMNM1	RDATE	    89	   226#	   508
ITMNM2	RCDATE	    75#	    96	   487
ITMNM2	RDATE	    89	   227#
ITMNMB	RDATE	   102	   122#
ITMNUM	RCDATE	    73#	    96	   492	   493	   494	   495	   496	   497	   498	   499	   500	   501	   502
	   503	   504	   505	   506	   507	   508	   509	   510	   511	   512	   513	   514	   515	   516
	   517	   518	   519	   520	   521	   522
ITMNUM	RDATE	    89	   123	   225#	   458	   466	   493
ITMOR	RCDATE	    79#	    97	   472
ITMOR	RDATE	    89	   231#
ITMREF	RCDATE	    80#	    97	   473	   474	   475
ITMREF	RDATE	    90	   232#
ITMRPR	RDATE	   144	   244#
ITMSC1	RDATE	   100#	   218
ITMSCN	RDATE	    99#	   105	   107	   115	   122	   221	   299	   316	   336	   363	   414	   457	   465
	   475	   491	   499	   511	   530	   547	   582	   585	   589	   601	   605	   612	   620	   627
ITMSPC	RDATE	   100	   112#
ITMTB	RDATE	   222	   224#
ITMTDY	RCDATE	    91#	    98	   478
ITMTDY	RDATE	    91	   245#
ITMTMR	RCDATE	    93#	    98	   480
ITMTMR	RDATE	    91	   247#
ITMUNT	RCDATE	    81#	    97	   477
ITMUNT	RDATE	    90	   233#
ITMYST	RCDATE	    92#	    98	   479
ITMYST	RDATE	    91	   246#
JOBVER	RMAIN	    90	    91#	    92
KEPDAT	RDATE	   150	   161#
L1DATE	RDATE	  1024#	  1084	  1140
LADSKP	RDATE	  1083	  1085#	  1087
LADTS	RDATE	    92	  1081#
LADTS	RMAIN	    85%	   472
LEAP	RCDATE	   537#	   537	   548	   556
LFBLK	RRMD	   131#	   131	   199
LFEBLK	RRMD	   215	   223#
LFENXB	RRMD	   211#	   224
LFNXF	RRMD	   214#	   222
MASTER CREF  2-MAR-81 21:55
        SYMBOL CROSS REFERENCE

LFNXT	RRMD	   217	   221#
LIDAT	RDATE	    93	  1137#
LIDAT	RMAIN	    86%	   471
LNXRM	RRMD	   344	   352#
LNXRM1	RRMD	   343#	   354
LNXRM2	RRMD	   340#	   356
LOCREM	RRMD	   369	   390#	   402	   413
LOKSPC	RDATE	   725#	   728	   815	   819
LPRBDT	RDATE	  1103	  1108#
LPRDAT	RDATE	    92	  1099#
LPRDAT	RMAIN	    85%	   465
LPRTDY	RDATE	    92	  1095#
LPRTDY	RMAIN	    85%	   468
LSTDAT	RCDATE	   103	  1451#
LSTDAT	RDATE	    75%	  1104	  1286
LSTDT1	RCDATE	  1457#	  1510
LSTDT3	RCDATE	  1468	  1471	  1473#	  1490
LSTDTO	RCDATE	  1474	  1512#
LSTDTS	RCDATE	  1456	  1485	  1494	  1507#	  1509	  1513
LSTDTT	RCDATE	  1478	  1487	  1498#
LSTFIL	RMAIN	    79%	   469	   474
LSTFIL	RRMD	    72	   210#
LSTMAL	RMAIN	    81%	   470
LSTMAL	RMAL	    72	   167#
LSTML1	RMAL	   175	   181#
LSTML2	RMAL	   174#	   180
LSTML3	RMAL	   171#	   182
LSTREM	RMAIN	    79%	   466
LSTREM	RRMD	    73	   335#
LSTTDY	RCDATE	   103	  1449#
LSTTDY	RDATE	    75%	  1095
MAIL	RMAIN	   380	   476#
MAINSC	RMAIN	   163	   185	   245	   331#
MAL	RCDATE	    33#
MAL	RCMAL	    33#	    86	    90	   118	   119	   146
MAL	RCOM	    33#
MAL	RDATE	    33#
MAL	RMAIN	    33#
MAL	RMAL	    33#
MAL	RRMD	    33#
MAL	RSCAN	    33#
MAL	2	    33#
MALAI1	RMAL	   107#	   211
MALAIN	RMAL	    90	   109#
MALBUF	RCMAL	    76#	    78	   121	   125
MALCOM	RCMAL	    78#	   119
MALHSH	RCDATE	    47#
MALHSH	RCMAL	    47#	   116
MALHSH	RCOM	    47#
MALHSH	RDATE	    47#
MASTER CREF  2-MAR-81 21:55
        SYMBOL CROSS REFERENCE

MALHSH	RMAIN	    47#
MALHSH	RMAL	    47#
MALHSH	RRMD	    47#
MALHSH	RSCAN	    47#
MALHSH	2	    47#
MALIN1	RMAL	    96#	    99
MALINS	RMAL	    92#
MALNAM	RCMAL	    81#	    90
MALSLT	RMAL	    97	   101#
MALSPC	RMAL	   151	   163#
MASK	RSCAN	    82	   101	   105	   109	   308#
MCMD	RMAIN	   198	   201#
MDWCOM	RCDATE	  1293#	  1319
MDWDLN	RCDATE	   100	   528#
MDWDLN	RDATE	    78%	   103	   904	   919
MDWNXM	RCDATE	  1246	  1260#	  1288
MDYNS1	RCDATE	  1105	  1108	  1115#
MDYNSD	RCDATE	  1102	  1106	  1110#	  1119	  1126
MLKLP	RCMAL	   121#	   139
MONDAY	RCDATE	   553	   603#	  1061
MONMIN	RCDATE	  1049	  1056#
MONPTR	RCDATE	   103	   526#	   632
MONPTR	RDATE	    79%	   904
MONTAB	RCDATE	   546	   570#	   664
MONTB2	RCDATE	   585#	   666
MONTH	RCDATE	   100	   543#	   543	   623	   631	   671	   672	  1027	  1031	  1038	  1048	  1060	  1080
	  1098	  1114	  1118	  1138	  1145	  1149	  1159	  1185	  1189	  1213	  1242	  1255	  1257	  1281
	  1283	  1287	  1295	  1311	  1313	  1332
MONTH	RDATE	    78%	   410	   426	   456	   494	   498	   524	   528	   562	   577	   583	   600	   619
MORTAB	RMAIN	   228	   243#
MTARG	RCDATE	   100	   700#	   700	   751	   761	   796	   802	   817	   818	   842	   848	   849	   854
	   890	   899	   929	   931	   935	  1465	  1472	  1489
MTARG	RDATE	    78%	   666	   670	   672	  1101	  1122	  1256
MTYSRC	RDATE	   817#	   820
N1	RDATE	   413#	   413	   430	   510	   519	   566	   595
NAMBUF	RDATE	    85%	   716	  1205	  1209
NAMBUF	RMAL	    81%	   101	   129	   152	   155	   158	   215
NAMBUF	RRMD	    73	    92	    93	    94	    95	   120	   126	   181	   230	   266	   282	   313	   325
	   419	   430#
NAMCHR	RRMD	   101	   102	   104#
NEWFBK	RRMD	   172	   193#
NEWFIL	2	    93#	   202	   250
NEWMBK	RMAL	    93	   116#
NEXT	RMAIN	   378	   479#
NMSC	RDATE	    73%	   104	  1149
NMSC	RMAIN	    74%	   168
NMSC	RSCAN	    71	    73#
NMSC0	RSCAN	    76#	    83
NMSC1	RSCAN	    78#	    81
NMSC2	RSCAN	    92#	   114
MASTER CREF  2-MAR-81 21:55
        SYMBOL CROSS REFERENCE

NMSC3	RSCAN	   103	   107	   111	   114#
NMSC4	RSCAN	    94	    97	   101#
NOCDT	RDATE	  1150	  1168#	  1227	  1241
NOCNC	RDATE	  1068	  1073#
NOCTM	RDATE	  1171	  1174	  1180	  1188	  1193#
NOCTXT	RDATE	  1206	  1212#
NOCWRN	RDATE	  1196	  1201#
NODAT	RDATE	   668	   681#
NODLST	RDATE	   723	   730#
NODSK	RCMAL	    75%	    89
NODSK	2	    74	   200	   256#
NOMAL	RCMAL	   122	   132#
NOMBX	RCMAL	    91	   143#
NONUM	RDATE	    85%	   169	   690	   710	  1173	  1183	  1198
NONUM	RRMD	    73	   366	   412	   426#
NONUM0	RDATE	    85%	   699
NONUM0	RRMD	    73	   425#
NORMFL	RRMD	   232	   261#	   268	   295	   337	   361	   407
NOTIM	RDATE	   691	   696	   702	   704#
NOTIMP	RDATE	  1039	  1063#
NOTIMP	RMAIN	   457	   462	   467	   473	   484	   488#
NOTMAL	RMAL	   113#	   190	   203
NOTUSR	RCMAL	   124	   127	   138#
NOUPDR	RRMD	    78%	   145
NOUPDR	2	    74	   209	   237	   260#
NOWRN	RDATE	   708	   712#
NOXCP	RCDATE	   798	   805#
NOXCP1	RCDATE	   801	   806#
NSDT	RDATE	   172	   177	   179	   183	   200#
NUMF	RCDATE	    22#
NUMF	RCMAL	    22#
NUMF	RCOM	    22#
NUMF	RDATE	    22#	   101	   168	   709	   767	   776	   791	   800	  1197
NUMF	RMAIN	    22#
NUMF	RMAL	    22#
NUMF	RRMD	    22#	   365	   411
NUMF	RSCAN	    22#	   264	   294
NUMF	2	    22#
NXMBK	RCMAL	   118#	   141
NXTBUF	2	    86#	    86	    89	   148	   153	   159	   166
NXTCHK	RDATE	  1253#	  1273
NXTCOM	RDATE	  1276	  1281#
NXTDAT	RCDATE	   101	  1419#	  1507
NXTDAT	RDATE	    77%	   178	   725	  1085	  1270
NXTDBK	RCDATE	  1423	  1429#
NXTDCS	RCDATE	  1421#	  1424
NXTSKP	RDATE	  1252	  1263	  1270#	  1272
NXTTDY	RDATE	  1266	  1275#
ONEDPR	RDATE	   824#	  1019	  1032
OPNREM	RMAIN	    72%	   153
MASTER CREF  2-MAR-81 21:55
        SYMBOL CROSS REFERENCE

OPNREM	2	    73	   197#
OPNRM1	2	   203#	   222
ORGCMD	RMAIN	   166#	   166	   183	   197
ORGREF	RCDATE	   102	  1397#
ORGREF	RDATE	    76%	   196	   214	  1217
OUTNUM	RCDATE	   106%	   636	   640	  1501
OUTNUM	RCOM	    72	   101#	   104
OUTNUM	RDATE	    81%	   760	   863	   955	  1029	  1045	  1050	  1057	  1062	  1066
OUTNUM	RRMD	    83%	   346	   386
OUTSIX	RCDATE	   106%	   633	   650
OUTSIX	RCOM	    72	    76#
OUTSIX	RDATE	    81%	   905	   920
OUTSX1	RCOM	    81	    87	    94#	    98
OUTSX2	RCOM	    74	    81#
OUTSXL	RCOM	    72	    73#
OUTSXL	RMAIN	    76%	   199	   222	   263
OUTWD	2	   100	   106#	   180	   195
P	RCDATE	     8#	   545	   557	   559	   560	   626	   628	   629	   630	   633	   636	   640	   641
	   642	   644	   677	   679	   680	   693	   694	   695	   747	   765	   769	   774	   779	   786
	   788	   792	   795	   797	   799	   805	   808	   811	   813	   814	   822	   825	   835	   839
	   851	   860	   861	   862	   863	   864	   868	   870	   872	   873	   874	   875	   876	   908
	   911	   912	   914	   915	   918	   919	   922	   923	   926	   928	   929	   932	   934	   935
	   936	   937	   938	   939	   940	   941	   942	   943	   944	   946	   947	   948	   975	   979
	   991	   992	   995	   996	   999	  1004	  1010	  1012	  1015	  1021	  1023	  1024	  1026	  1028
	  1029	  1030	  1035	  1039	  1051	  1064	  1068	  1070	  1073	  1077	  1078	  1085	  1091	  1095
	  1111	  1115	  1117	  1124	  1127	  1128	  1130	  1135	  1136	  1139	  1141	  1145	  1149	  1150
	  1152	  1161	  1164	  1173	  1175	  1179	  1180	  1184	  1193	  1196	  1198	  1199	  1200	  1202
	  1203	  1204	  1206	  1208	  1212	  1219	  1220	  1222	  1223	  1229	  1231	  1234	  1238	  1239
	  1241	  1250	  1251	  1252	  1253	  1258	  1259	  1263	  1264	  1266	  1267	  1270	  1275	  1276
	  1277	  1278	  1279	  1280	  1299	  1301	  1302	  1303	  1304	  1307	  1308	  1309	  1312	  1316
	  1318	  1319	  1321	  1324	  1327	  1331	  1336	  1338	  1340	  1341	  1344	  1349	  1353	  1356
	  1358	  1360	  1361	  1364	  1367	  1370	  1372	  1374	  1375	  1378	  1381	  1382	  1383	  1389
	  1390	  1391	  1406	  1408	  1409	  1410	  1416	  1417	  1426	  1430	  1432	  1433	  1449	  1454
	  1470	  1473	  1484	  1488	  1495	  1501	  1506	  1507	  1512	  1517	  1519	  1520
P	RCMAL	     8#	    93	    96	   147
P	RCOM	     8#	    81	    87	    99	   102	   104	   105	   108	   110	   111
P	RDATE	     8#	    99	   104	   110	   118	   120	   125	   148	   153	   159	   171	   178	   186
	   188	   189	   198	   211	   212	   213	   218	   221	   253	   273	   299	   301	   316	   327
	   330	   357	   362	   363	   366	   369	   388	   394	   396	   414	   431	   436	   451	   457
	   465	   472	   474	   475	   487	   491	   499	   504	   511	   514	   520	   525	   530	   535
	   541	   547	   582	   585	   589	   601	   605	   606	   612	   620	   621	   627	   640	   648
	   664	   665	   667	   671	   685	   688	   689	   697	   698	   706	   715	   719	   722	   725
	   730	   731	   733	   734	   735	   738	   739	   742	   743	   744	   745	   746	   748	   749
	   750	   757	   760	   763	   769	   770	   772	   775	   777	   779	   780	   783	   784	   785
	   790	   795	   799	   830	   859	   863	   873	   876	   879	   882	   885	   888	   894	   895
	   898	   905	   909	   913	   916	   924	   935	   936	   946	   950	   953	   955	   957	   959
	   962	   966	   968	   971	   975	   981	  1014	  1016	  1018	  1019	  1029	  1032	  1035	  1045
	  1050	  1057	  1062	  1066	  1071	  1079	  1081	  1084	  1085	  1090	  1091	  1092	  1095	  1099
	  1100	  1102	  1104	  1114	  1115	  1121	  1123	  1127	  1131	  1132	  1134	  1138	  1139	  1140
	  1143	  1144	  1147	  1149	  1151	  1152	  1153	  1154	  1164	  1166	  1169	  1172	  1181	  1182
MASTER CREF  2-MAR-81 21:55
        SYMBOL CROSS REFERENCE

P	RDATE	  1194	  1204	  1215	  1224	  1226	  1229	  1247	  1250	  1262	  1270	  1281	  1282	  1285
	  1286
P	RMAIN	     8#	   146	   152	   153	   154	   160	   168	   193	   199	   207	   212	   213	   220
	   222	   223	   232	   235	   236	   237	   238	   239	   248	   255	   256	   257	   258	   259
	   263
P	RMAL	     8#	    87	    88	    94	   104	   107	   108	   116	   117	   118	   121	   123	   125
	   126	   127	   131	   132	   134	   135	   136	   138	   139	   144	   146	   147	   166	   168
	   171	   188	   189	   196	   201	   202	   204	   205	   208	   209	   212	   213	   214	   218
	   221
P	RRMD	     8#	    96	    99	   104	   111	   134	   138	   142	   144	   146	   148	   150	   151
	   152	   154	   155	   156	   158	   159	   160	   161	   167	   168	   173	   174	   177	   178
	   179	   180	   186	   189	   190	   193	   194	   197	   200	   203	   211	   229	   231	   233
	   243	   245	   246	   247	   248	   253	   254	   256	   257	   258	   265	   267	   270	   271
	   274	   275	   278	   279	   280	   285	   288	   289	   293	   294	   300	   301	   316	   319
	   322	   323	   324	   328	   329	   330	   331	   332	   333	   335	   336	   340	   345	   346
	   347	   359	   360	   364	   367	   368	   369	   375	   376	   377	   378	   384	   385	   386
	   390	   397	   398	   403	   405	   406	   410	   413	   418	   422
P	RSCAN	     8#	    74	   116	   117	   266	   279	   284	   291	   298	   304
P	2	     8#	    91	    94	    95	   101	   151	   155	   165	   166	   167	   169	   170	   174
	   176	   181	   187	   196	   202	   203	   211	   218	   220	   227	   250	   252	   255
P2	RCDATE	     9#
P2	RCMAL	     9#
P2	RCOM	     9#
P2	RDATE	     9#	   254
P2	RMAIN	     9#	   147	   155	   204	   205	   206	   207	   209	   214	   215	   233	   234	   237
	   240	   241	   245	   246	   247	   248	   250	   253	   254	   257	   260	   261
P2	RMAL	     9#
P2	RRMD	     9#
P2	RSCAN	     9#
P2	2	     9#
PDL	RCOM	    72	   113#
PDL	RDATE	    81%	   253
PDL	RMAIN	    76%	   146	   154
PDL2	RCOM	    72	   114#
PDL2	RDATE	    81%	   254
PDL2	RMAIN	    76%	   147	   155
PDLSZ	RCDATE	    43#
PDLSZ	RCMAL	    43#
PDLSZ	RCOM	    43#	   113
PDLSZ	RDATE	    43#	   253
PDLSZ	RMAIN	    43#	   146	   154
PDLSZ	RMAL	    43#
PDLSZ	RRMD	    43#
PDLSZ	RSCAN	    43#
PDLSZ	2	    43#
PDLSZ2	RCDATE	    44#
PDLSZ2	RCMAL	    44#
PDLSZ2	RCOM	    44#	   114
PDLSZ2	RDATE	    44#	   254
PDLSZ2	RMAIN	    44#	   147	   155
MASTER CREF  2-MAR-81 21:55
        SYMBOL CROSS REFERENCE

PDLSZ2	RMAL	    44#
PDLSZ2	RRMD	    44#
PDLSZ2	RSCAN	    44#
PDLSZ2	2	    44#
PLEVEL	RDATE	   207#	   207	   270	   326	   339
PRDAT	RCDATE	    99	   644#	  1495
PRDAT	RDATE	    76%	   671	  1282
PRDAT1	RCDATE	   103	   629#	   644
PRDAT1	RDATE	    79%	  1016	  1035	  1071
PRIDSP	RMAIN	   167#	   167	   176	   178	   179	   192
PRINT	RMAIN	   375	   376	   465#
PRMAIL	RMAIN	    83%	   476
PRMAIL	RMAL	    72	   221#
PRMAL1	RCMAL	   100	   134#
PRMAL2	RCMAL	    99#	   133
PRMAL3	RCMAL	    96#	   136
PRND	RDATE	   870	   878#
PRNTAG	RMAIN	   249	   253#
PRRD	RDATE	   871	   881#
PRST	RDATE	   869	   875#
PRTAB	RDATE	   831	   833#
PRTH	RDATE	   868	   872#
QUIT	RMAIN	   377	   475#
RDA0	RDATE	   221#	   284	   320	   329	   335	   376	   388	   394	   642	   653
RDA1	RDATE	   219	   222#	   301	   306	   396	   398	   435
RDATE	RDATE	   147#	   664	   685	  1018	  1099	  1152
RDAY1	RCDATE	  1084	  1091#
RDAY11	RCDATE	  1092#	  1146
RDB0	RDATE	   429	   432#	   452	   545	   565	   569
RDB1	RDATE	   364	   433#	   476
RDBUF	RCDATE	   108%	  1406	  1410	  1432
RDBUF	RCMAL	    75%	    93	    96
RDBUF	RDATE	    87%	   733	   744	   750
RDBUF	RMAL	    79%	    94	   117	   123	   126	   134	   138	   144	   147	   168	   171	   213
RDBUF	RRMD	    78%	   111	   138	   148	   154	   158	   173	   180	   194	   200	   211	   245	   248
	   256	   279	   301	   324	   330	   340	   390
RDBUF	2	    73	   169#	   252
RDFNM	RRMD	    91#	   167	   229	   265	   274	   293	   335	   359	   405
RDNAM	RDATE	    85%	   715	  1204
RDNAM	RMAL	    81%	    87	   188	   201	   208
RDNAM	RRMD	    73	    92#	   300	   418
RDNAM1	RRMD	    98#	   105
RDTTY	RDATE	   153	   206#
RECAL	RMAIN	   248#	   265
REFRN0	RCDATE	   699#	   699	   705	   915	   917	   942
REFRNC	RCDATE	   706#	   706	   771	   914	   916	   943	   978	   994	  1025
RELDAT	RDATE	  1084#	  1088
REM	RCDATE	    32#
REM	RCMAL	    32#
REM	RCOM	    32#
MASTER CREF  2-MAR-81 21:55
        SYMBOL CROSS REFERENCE

REM	RDATE	    32#
REM	RMAIN	    32#
REM	RMAL	    32#
REM	RRMD	    32#	   143
REM	RSCAN	    32#
REM	2	    32#	   197	   201	   208	   221	   226	   228	   249
REMGET	RDATE	    87%	   730	   742
REMGET	RMAL	    81%	   116
REMGET	RRMD	    73	   137#	   178	   193	   323
REMNAM	2	   208	   226	   228	   230	   242#
REMSIZ	RRMD	    79%	   140
REMSIZ	2	    74	   233#	   233
REPDAT	RDATE	  1158	  1226#
REPDT1	RDATE	  1217#	  1226	  1229
RGOLD	RRMD	   141	   154#
RPR1	RDATE	   330#	   343
RSTERR	RCDATE	    39#
RSTERR	RCMAL	    39#
RSTERR	RCOM	    39#
RSTERR	RDATE	    39#
RSTERR	RMAIN	    39#	   187	   227	   373	   374	   375	   376	   379
RSTERR	RMAL	    39#
RSTERR	RRMD	    39#
RSTERR	RSCAN	    39#
RSTERR	2	    39#
RTARG	RCDATE	  1085#	  1140
SAVCHR	RSCAN	   261#	   261	   265	   281	   297
SAVNXT	RDATE	  1268#	  1268	  1269	  1280
SBII1	RDATE	   509	   516#
SBII2	RDATE	   517	   522#
SCAN	RDATE	    73%	    99	   188	   697	   770	   775	   779	   790	   795	   799	  1181
SCAN	RMAIN	    74%	   193
SCAN	RRMD	    76%	   378
SCAN	RSCAN	    71	   264#
SCAN1	RSCAN	   277#	   280
SCAN2	RSCAN	   281#	   295
SCANI	RDATE	    73%	   148	   688	   706	  1090	  1114	  1131	  1138	  1143	  1147	  1169	  1194
SCANI	RMAIN	    74%	   160
SCANI	RRMD	    76%	   364	   410
SCANI	RSCAN	    71	   261#
SCNUM	RSCAN	   276	   286#
SCNUM1	RSCAN	   287#	   293
SCOUNT	RSCAN	   273#	   273	   277	   287
SCRCNM	RRMD	   117#	   130
SCREBK	RRMD	   118	   131#
SCRNXN	RRMD	   121	   129#
SETDAT	RDATE	   752#	   811	   821
SETLDY	RCDATE	  1060#	  1095	  1180	  1199	  1263
SETMON	RCDATE	  1024#	  1077	  1175	  1198	  1238
SETPRI	RCDATE	    40#
MASTER CREF  2-MAR-81 21:55
        SYMBOL CROSS REFERENCE

SETPRI	RCMAL	    40#
SETPRI	RCOM	    40#
SETPRI	RDATE	    40#
SETPRI	RMAIN	    40#	   182	   373	   374	   375	   376	   377	   378	   379	   380	   381	   382	   383
	   384
SETPRI	RMAL	    40#
SETPRI	RRMD	    40#
SETPRI	RSCAN	    40#
SETPRI	2	    40#
SETREM	2	   207	   249#
SIXUSR	RCMAL	   106#	   112
SMLDAT	RDATE	  1160	  1229#
SMLDT1	RDATE	  1237#	  1240
SPCBLK	RMAL	    81%	    92	   143	   163
SPCBLK	RRMD	    73	   110#	   110	   114	   171	   198	   201
SPCHR	RSCAN	   268	   297#
SPCLEN	RDATE	   112	   116	   117	   138#
SPCTBL	RDATE	   113	   116	   117	   135#	   138
SRCDAT	RCDATE	  1453#	  1453	  1462	  1475	  1493
SRCDAT	RDATE	  1248#	  1248	  1253	  1265	  1275
SRCREM	RRMD	   109#	   168	   231	   267	   275	   294	   336	   360	   406
SRCRM1	RRMD	   111#	   133
SRMAL	RMAL	    88	   142#	   189	   202	   209
SRMAL1	RMAL	   153	   156	   160#
SRMAL2	RMAL	   150#	   161
SRMAL3	RMAL	   147#	   165
STPSCN	RCDATE	    41#
STPSCN	RCMAL	    41#
STPSCN	RCOM	    41#
STPSCN	RDATE	    41#
STPSCN	RMAIN	    41#	   191	   227	   377	   378	   380	   381	   382	   383	   384	   400	   401	   402
	   403	   404	   429	   430	   431	   432	   433	   434	   446	   447	   448	   452
STPSCN	RMAL	    41#
STPSCN	RRMD	    41#
STPSCN	RSCAN	    41#
STPSCN	2	    41#
STPT	RMAIN	   145#	   493
STRTN0	RCDATE	   701#	   701	   707	   919	   921	   940
STRTNG	RCDATE	   708#	   708	   752	   762	   763	   776	   816	   822	   824	   832	   840	   841	   846
	   847	   853	   860	   872	   883	   902	   918	   920	   941
SUBDAF	RCDATE	   960	  1344#
SUBDAT	RCDATE	   765	   950#
SUBDAY	RCDATE	   954	   978#
SUBDBF	RCDATE	   959	  1338#
SUBDOW	RCDATE	   953	   991#
SUBDT1	RCDATE	   769	   774	   779	   825	   835	   851	   868	   870	   949#	  1342	  1365	  1379
SUBDYC	RCDATE	   980#	  1001
SUBLDC	RCDATE	  1176	  1180#	  1190
SUBLDW	RCDATE	   956	  1192#
SUBLDY	RCDATE	   958	  1171#
MASTER CREF  2-MAR-81 21:55
        SYMBOL CROSS REFERENCE

SUBLPR	RCDATE	   908#	   972
SUBLSD	RCDATE	  1172	  1183#
SUBLSW	RCDATE	  1195	  1211#
SUBLW1	RCDATE	  1199#	  1209	  1215
SUBMDW	RCDATE	   955	  1228#
SUBMDY	RCDATE	   957	  1069#
SUBMSD	RCDATE	  1079	  1098#
SUBMSW	RCDATE	  1240	  1318#
SUBRDT	RCDATE	   971	   975#
SUBSMD	RCDATE	  1072	  1132#
SUBSMW	RCDATE	  1233	  1270#
SUBSS1	RCDATE	  1151	  1159#
SUBSS2	RCDATE	  1150#	  1157	  1170
SUBSSD	RCDATE	  1137	  1148#
SUBSSW	RCDATE	  1271	  1327#
SUBSW1	RCDATE	  1320	  1323#
SUBSW2	RCDATE	  1319#	  1325	  1334
SUBTAB	RCDATE	   950	   952#
SUBWAF	RCDATE	   962	  1353#
SUBWBF	RCDATE	   961	  1367#
SVDPTR	RCDATE	    99	   704#	   704	   926	   927	   937	  1459
SVDPTR	RDATE	    76%	   195	   209	   825	  1026	  1120	  1261
SYSERR	RCDATE	   627	   735	   740#	   770	   775	   780	   952	   963	   964	   965	   966	   967	   968
	   969	   970	   973	  1201	  1265	  1300
T1	RCDATE	     2#	   530	   531	   532	   533	   534	   535	   539	   540	   541	   542	   546	   550
	   552	   617	   618	   621	   624	   625	   629	   641	   646	   647	   653	   654	   655	   656
	   657	   658	   660	   662	   663	   667	   668	   670	   671	   679	   683	   684	   688	   691
	   694	   696	   697	   698	   699	   700	   701	   702	   703	   705	   706	   707	   708	   709
	   710	   744	   745	   748	   751	   752	   754	   757	   758	   761	   762	   763	   764	   771
	   776	   781	   787	   794	   795	   796	   799	   800	   805	   806	   809	   810	   816	   817
	   818	   819	   820	   823	   824	   827	   828	   830	   831	   832	   837	   841	   842	   844
	   845	   846	   847	   848	   849	   850	   853	   854	   856	   858	   881	   882	   883	   890
	   891	   892	   899	   900	   902	   905	   906	   909	   910	   916	   917	   920	   921	   924
	   925	   930	   931	   945	   976	   980	   981	   982	   985	   986	   988	   994	   998	  1003
	  1004	  1005	  1006	  1010	  1011	  1014	  1015	  1016	  1017	  1021	  1022	  1024	  1025	  1027
	  1028	  1031	  1032	  1033	  1034	  1036	  1037	  1038	  1040	  1041	  1042	  1043	  1046	  1048
	  1049	  1050	  1053	  1057	  1061	  1062	  1074	  1076	  1080	  1082	  1086	  1088	  1092	  1093
	  1098	  1100	  1115	  1124	  1125	  1132	  1134	  1138	  1139	  1141	  1159	  1160	  1162	  1163
	  1165	  1167	  1168	  1169	  1174	  1177	  1183	  1197	  1207	  1211	  1218	  1221	  1226	  1235
	  1237	  1242	  1244	  1247	  1249	  1251	  1253	  1258	  1260	  1261	  1272	  1274	  1277	  1279
	  1293	  1294	  1295	  1296	  1297	  1298	  1306	  1307	  1309	  1323	  1328	  1330	  1350	  1359
	  1362	  1363	  1373	  1376	  1377	  1385	  1393	  1453	  1460	  1461	  1462	  1463	  1464	  1465
	  1472	  1475	  1479	  1480	  1483	  1486	  1491	  1504	  1505	  1515	  1516	  1518
T1	RCMAL	     2#	    97	    98	    99	   101	   129	   132	   133
T1	RCOM	     2#	    77	    78	    79	    80	    94	    95	    96	    97
T1	RDATE	     2#	   103	   106	   108	   109	   112	   113	   114	   115	   116	   117	   155	   156
	   157	   158	   196	   197	   214	   215	   330	   331	   334	   367	   370	   415	   416	   418
	   419	   420	   422	   424	   426	   427	   429	   430	   443	   444	   447	   448	   450	   460
	   461	   469	   470	   478	   479	   480	   518	   519	   537	   538	   540	   542	   543	   548
	   549	   551	   552	   553	   555	   557	   559	   560	   562	   563	   565	   566	   567	   593
MASTER CREF  2-MAR-81 21:55
        SYMBOL CROSS REFERENCE

T1	RDATE	   594	   595	   609	   610	   624	   625	   632	   633	   636	   637	   639	   644	   645
	   647	   649	   650	   655	   656	   660	   661	   666	   669	   670	   675	   676	   677	   694
	   695	   700	   701	   714	   716	   717	   740	   741	   746	   747	   755	   756	   864	   865
	   866	   867	   868	  1015	  1034	  1038	  1040	  1041	  1042	  1052	  1053	  1054	  1067	  1101
	  1116	  1117	  1122	  1125	  1126	  1148	  1156	  1157	  1159	  1161	  1162	  1163	  1203	  1208
	  1209	  1210	  1211	  1213	  1214	  1217	  1218	  1219	  1220	  1223	  1230	  1231	  1237	  1238
	  1239	  1248	  1253	  1254	  1255	  1256	  1257	  1258	  1264	  1265	  1268	  1269	  1275	  1280
	  1281	  1285
T1	RMAIN	     2#	   163	   164	   165	   173	   181	   183	   184	   185	   186
T1	RMAL	     2#	    86	    95	    96	    98	   101	   102	   103	   107	   108	   119	   120	   128
	   129	   130	   148	   149	   150	   154	   157	   160	   161	   172	   173	   174	   176	   179
	   180	   187	   191	   192	   200	   204	   207	   214	   215	   216	   217
T1	RRMD	     2#	    91	   102	   112	   113	   115	   116	   117	   119	   123	   129	   130	   175
	   176	   181	   182	   183	   184	   185	   187	   188	   195	   196	   201	   202	   212	   213
	   214	   216	   218	   221	   222	   233	   236	   237	   240	   241	   242	   249	   251	   269
	   270	   280	   281	   283	   284	   288	   289	   296	   299	   302	   303	   304	   306	   307
	   308	   310	   314	   315	   320	   321	   338	   341	   342	   343	   349	   352	   354	   362
	   372	   373	   374	   408	   417	   419	   420	   421
T1	RSCAN	     2#	    84	    86	    89	    92	   113	   114	   115
T1	2	     2#	    85	    86	    87	    88	    89	   149	   150	   190	   191	   193	   205	   212
	   213	   214	   215	   216	   217	   224	   225	   230	   231	   232	   233	   238	   239	   253
	   254
T2	RCDATE	     3#	   535	   536	   537	   538	   539	   542	   543	   544	   546	   547	   553	   555
	   619	   620	   622	   623	   648	   657	   669	   674	   675	   676	   680	   681	   687	   692
	   693	   839	   840	   978	   981	   983	   984	   986	   996	   997	   998	  1007	  1008	  1009
	  1011	  1018	  1019	  1020	  1022	  1035	  1036	  1039	  1040	  1042	  1060	  1061	  1063	  1065
	  1066	  1081	  1083	  1099	  1101	  1114	  1118	  1120	  1126	  1176	  1243	  1245	  1254	  1255
	  1257	  1266	  1280	  1281	  1283	  1287	  1304	  1305	  1306	  1310	  1311	  1313	  1314	  1315
	  1419	  1420	  1424	  1436	  1437	  1442	  1450	  1451	  1452	  1481	  1483	  1491	  1492	  1493
T2	RCMAL	     3#	   101	   102	   106	   113	   114	   115	   116	   117	   118	   140
T2	RCOM	     3#	    73	    76	    82	    83	    84	    85	    86	    88	    89	    90	    91	    92
	    93	    98
T2	RDATE	     3#	   175	   176	   181	   182	   184	   190	   193	   478	   481	   482	   485	   692
	   694	   703	   753	   754	   756	   772	   773	   777	   780	   781	   782	   802	   803	   806
	   809	   810	   811	   814	   820	   866	   869	   870	   871	  1047	  1058	  1175	  1177	  1179
	  1184	  1185	  1187	  1190	  1191	  1192	  1210	  1211	  1221	  1222	  1223	  1232	  1233	  1234
	  1235	  1240
T2	RMAIN	     3#	   170	   171	   172	   173	   174	   175	   176	   177	   178	   179	   182	   184
	   187	   191	   224	   225	   226	   227	   244	   245	   262
T2	RMAL	     3#	   102	   103	   150	   152	   154	   155	   157	   158	   216	   217
T2	RRMD	     3#	    93	    94	    95	   103	   119	   120	   122	   124	   126	   127	   128	   184
	   185	   186	   234	   235	   236	   237	   238	   282	   283	   284	   313	   314	   315	   325
	   326	   327
T2	RSCAN	     3#	    76	    78	    80	    82	    95	    96	    98	    99	   272	   273	   274	   278
	   288
T2	2	     3#
T3	RCDATE	     4#	   551	   552	   553	   558	   631	   632	   635	   638	   639	   648	   649	   664
	   666	   667	   669	   673	   674	  1438	  1439	  1482	  1486	  1500
T3	RCMAL	     4#	   105	   111	   117	   120	   121	   125	   138	   139
T3	RCOM	     4#	    73	    76	    82	    84	    88	    91	   101	   103	   105	   106	   107
MASTER CREF  2-MAR-81 21:55
        SYMBOL CROSS REFERENCE

T3	RDATE	     4#	   122	   124	   170	   211	   213	   711	   759	   769	   782	   793	   794	   797
	   803	   804	   805	   806	   812	   813	   814	   816	   817	   818	   862	   899	   900	   904
	   918	   919	   928	   929	   937	   938	   947	   948	   954	  1028	  1042	  1043	  1047	  1048
	  1054	  1055	  1058	  1060	  1065	  1153	  1200	  1236	  1237
T3	RMAIN	     4#	   188	   189	   197	   203	   204	   212	   215	   216	   219	   220	   221	   223
	   224	   231	   233	   236	   238	   241	   253	   256	   258	   261	   262
T3	RMAL	     4#
T3	RRMD	     4#	   123	   124	   125	   339	   345	   347	   353	   368	   371	   372	   373	   374
	   375	   384	   391	   393	   394	   395	   396	   400	   420	   421
T3	RSCAN	     4#	    77	    79	    81	    92	    93	   101	   102	   104	   105	   106	   108	   109
	   110	   286	   289	   290
T3	2	     4#
T4	RCDATE	     5#
T4	RCMAL	     5#	   106	   107	   108	   109	   110	   111	   121	   123	   125	   126
T4	RCOM	     5#	   102
T4	RDATE	     5#
T4	RMAIN	     5#	   205	   213	   214	   216	   217	   218	   219	   221	   225	   234	   235	   239
	   240	   246	   254	   255	   259	   260
T4	RMAL	     5#
T4	RRMD	     5#	   125	   126	   385
T4	RSCAN	     5#	    75	    76	    82	    83	    84	    85	    86	    87	    88	    89	    90	    91
	   112	   113	   115
T4	2	     5#
T5	RCDATE	     6#
T5	RCMAL	     6#
T5	RCOM	     6#
T5	RDATE	     6#
T5	RMAIN	     6#
T5	RMAL	     6#
T5	RRMD	     6#
T5	RSCAN	     6#
T5	2	     6#
TARGET	RCDATE	   764#	   764	   820	   831	   850	   882	   928	   930	   936	   980	   985	  1074	  1086
	  1132	  1174	  1183	  1197	  1211	  1218	  1221	  1235	  1247	  1272	  1328	  1339	  1359	  1363
	  1373	  1377
TCOMP	RCDATE	  1152	  1204	  1217#	  1321
TDYCOM	RDATE	   358#	   367	   370
TDYFLG	RCDATE	  1452#	  1452	  1467	  1477
TERMF	RDATE	    73%	   149	   707	   765	  1170	  1195
TERMF	RMAIN	    74%	   161
TERMF	RRMD	    76%	    98	   379
TERMF	RSCAN	    71	   121#	   134
TEST	RMAIN	   383	   477#
TIBUF	RMAIN	    74%	   150
TIBUF	RSCAN	    71	   300	   302	   306#
TRYDAT	RDATE	   174	   181#
TTY	RCDATE	    31#
TTY	RCMAL	    31#
TTY	RCOM	    31#
TTY	RDATE	    31#	   713	  1202
MASTER CREF  2-MAR-81 21:55
        SYMBOL CROSS REFERENCE

TTY	RMAIN	    31#	   148
TTY	RMAL	    31#	    85	   186	   199
TTY	RRMD	    31#	   166	   228	   264	   273	   298	   416
TTY	RSCAN	    31#	   262	   301
TTY	2	    31#
UCANCL	RMAIN	   382	   481#
UNTDT0	RCDATE	   703#	   703	   709	   923	   925	   938
UNTLDT	RCDATE	   710#	   710	   745	   754	   781	   828	   900	   922	   924	   939
USER	RCMAL	    76#	   103	   104	   105	   113	   114	   123	   126
USIWD	2	    98	   104#	   172
USOWD	2	    97	   103#	   179	   194
WABFCM	RDATE	   965#	   971	   975
WKDPR	RDATE	   895	   918#	   936	   946	   969
WKDPTR	RCDATE	   103	   525#	   649
WKDPTR	RDATE	    79%	   919
WRTBUF	RCDATE	   108%	  1443	  1470	  1506	  1519
WRTBUF	RDATE	    87%	   735	   748	   757	  1127	  1134	  1215
WRTBUF	RMAL	    79%	   104	   131	   136	   196	   218
WRTBUF	RRMD	    78%	   150	   160	   189	   197	   203	   243	   254	   258	   285	   316	   328	   332
	   376	   422
WRTBUF	2	    73	   176#	   218
XCPCNT	RCDATE	   697#	   697	   790	   908	   910	   947
YDCNV	RCDATE	    99	   530#	   626	  1096	  1111	  1150	  1181	  1200	  1264	  1299
YDCNV	RDATE	    76%	   472
YEAR	RCDATE	   100	   530#	   530	   625	   638	   656	   661	   663	  1029	  1033	  1052	  1056	  1065
	  1081	  1099	  1142	  1144	  1155	  1156	  1165	  1169	  1186	  1188	  1243	  1284	  1286	  1297
	  1315
YEAR	RDATE	    78%	   468	   529	   542	   559	   588	   604	   649
YESTBL	RDATE	  1148	  1243#
ZRBUF	RRMD	    78%	   142	   162
ZRBUF	2	    73	   187#	   211	   220
ZZ	RCDATE	   236#	   236	   237#	   237	   238#	   238	   239#	   239	   240#	   240	   241#	   241	   242#
	   242	   243#	   243	   244#	   244	   245#	   245	   246#	   246	   247#	   247	   248#	   248	   249#
	   249	   250#	   250	   251#	   251	   252#	   252	   253#	   253	   254#	   254	   255#	   255	   256#
	   256	   257#	   257	   258#	   258	   259#	   259	   260#	   260	   261#	   261	   262#	   262	   263#
	   263	   264#	   264	   265#	   265	   266#	   266	   267#	   267	   268#	   268	   269#	   269	   270#
	   270	   271#	   271	   272#	   272	   273#	   273	   274#	   274	   275#	   275	   276#	   276	   277#
	   277	   278#	   278	   279#	   279	   280#	   280	   281#	   281	   282#	   282	   283#	   283	   284#
	   284	   285#	   285	   286#	   286	   287#	   287	   288#	   288	   289#	   289	   290#	   290	   291#
	   291	   292#	   292	   293#	   293	   294#	   294	   295#	   295	   296#	   296	   297#	   297	   298#
	   298	   299#	   299	   300#	   300	   301#	   301	   302#	   302	   303#	   303	   304#	   304	   305#
	   305	   306#	   306	   307#	   307	   308#	   308	   309#	   309	   310#	   310	   311#	   311	   312#
	   312	   313#	   313	   314#	   314	   315#	   315	   316#	   316	   317#	   317	   318#	   318	   319#
	   319	   320#	   320	   321#	   321	   322#	   322	   323#	   323	   324#	   324	   325#	   325	   326#
	   326	   327#	   327	   328#	   328	   329#	   329	   330#	   330	   331#	   331	   332#	   332	   333#
	   333	   334#	   334	   335#	   335	   336#	   336	   337#	   337	   338#	   338	   339#	   339	   340#
	   340	   341#	   341	   342#	   342	   343#	   343	   344#	   344	   345#	   345	   346#	   346	   347#
	   347	   348#	   348	   349#	   349	   350#	   350	   351#	   351	   352#	   352	   353#	   353	   354#
	   354	   355#	   355	   356#	   356	   357#	   357	   358#	   358	   359#	   359	   360#	   360	   361#
	   361	   362#	   362	   363#	   363	   364#	   364	   365#	   365	   366#	   366	   367#	   367	   368#
MASTER CREF  2-MAR-81 21:55
        SYMBOL CROSS REFERENCE

ZZ	RCDATE	   368	   369#	   369	   370#	   370	   371#	   371	   372#	   372	   373#	   373	   374#	   374
	   375#	   375	   376#	   376	   377#	   377	   378#	   378	   379#	   379	   380#	   380	   381#	   381
	   382#	   382	   383#	   383	   384#	   384	   385#	   385	   386#	   386	   387#	   387	   388#	   388
	   389#	   389	   390#	   390	   391#	   391	   392#	   392	   393#	   393	   394#	   394	   395#	   395
	   396#	   396	   397#	   397	   398#	   398	   399#	   399	   400#	   400	   401#	   401	   402#	   402
	   403#	   403	   404#	   404	   405#	   405	   406#	   406	   407#	   407	   408#	   408	   409#	   409
	   410#	   410	   411#	   411	   412#	   412	   413#	   413	   414#	   414	   415#	   415	   416#	   416
	   417#	   417	   418#	   418	   419#	   419	   420#	   420	   421#	   421	   422#	   422	   423#	   423
	   424#	   424	   425#	   425	   426#	   426	   427#	   427	   428#	   428	   429#	   429	   430#	   430
	   431#	   431	   432#	   432	   433#	   433	   434#	   434	   435#	   435	   436#	   436	   437#	   437
	   438#	   438	   439#	   439	   440#	   440	   441#	   441	   442#	   442	   443#	   443	   444#	   444
	   445#	   445	   446#	   446	   447#	   447	   448#	   448	   571#	   572	   572#	   573	   573#	   574
	   574#	   575	   575#	   576	   576#	   577	   577#	   578	   578#	   579	   579#	   580	   580#	   581
	   581#	   582	   582#	   583	   583#	   586#	   587	   587#	   588	   588#	   589	   589#	   590	   590#
	   591	   591#	   592	   592#	   593	   593#	   594	   594#	   595	   595#	   596	   596#	   597	   597#
	   598	   598#
ZZ	RMAIN	   332#	   332	   333#	   333	   334#	   334	   335#	   335	   336#	   336	   337#	   337	   338#
	   338	   339#	   339	   340#	   340	   341#	   341	   342#	   342	   343#	   343	   344#	   344	   345#
	   345	   346#	   346	   347#	   347	   348#	   348	   349#	   349	   350#	   350	   351#	   351	   352#
	   352	   353#	   353	   354#	   354	   355#	   355	   356#	   356	   357#	   357	   358#	   358	   359#
	   359	   360#	   360	   361#	   361	   362#	   362	   363#	   363	   364#	   364	   365#	   365	   366#
	   366	   367#	   367	   368#	   368	   369#	   369	   370#	   370	   371#	   371	   372#	   372	   385#
	   385	   386#	   386	   387#	   387	   388#	   388	   389#	   389	   390#	   390	   391#	   391	   392#
	   392	   393#	   393	   394#	   394	   395#	   395	   396#	   396	   397#	   397	   398#	   398	   399#
	   399	   405#	   405	   406#	   406	   407#	   407	   408#	   408	   409#	   409	   410#	   410	   411#
	   411	   412#	   412	   413#	   413	   414#	   414	   415#	   415	   416#	   416	   417#	   417	   418#
	   418	   419#	   419	   420#	   420	   421#	   421	   422#	   422	   423#	   423	   424#	   424	   425#
	   425	   426#	   426	   427#	   427	   428#	   428	   437#	   437	   438#	   438	   439#	   439	   440#
	   440	   441#	   441	   442#	   442	   443#	   443	   444#	   444	   445#	   445	   449#	   449	   450#
	   450	   451#	   451
ZZ	2	   119#	   122	   127	   127#	   128	   133	   133#	   134	   139	   139#	   140	   145	   145#
ZZ1	RCDATE	   236#	   236	   237#	   237	   238#	   238	   239#	   239	   240#	   240	   241#	   241	   242#
	   242	   243#	   243	   244#	   244	   245#	   245	   246#	   246	   247#	   247	   248#	   248	   249#
	   249	   250#	   250	   251#	   251	   252#	   252	   253#	   253	   254#	   254	   255#	   255	   256#
	   256	   257#	   257	   258#	   258	   259#	   259	   260#	   260	   261#	   261	   262#	   262	   263#
	   263	   264#	   264	   265#	   265	   266#	   266	   267#	   267	   268#	   268	   269#	   269	   270#
	   270	   271#	   271	   272#	   272	   273#	   273	   274#	   274	   275#	   275	   276#	   276	   277#
	   277	   278#	   278	   279#	   279	   280#	   280	   281#	   281	   282#	   282	   283#	   283	   284#
	   284	   285#	   285	   286#	   286	   287#	   287	   288#	   288	   289#	   289	   290#	   290	   291#
	   291	   292#	   292	   293#	   293	   294#	   294	   295#	   295	   296#	   296	   297#	   297	   298#
	   298	   299#	   299	   300#	   300	   301#	   301	   302#	   302	   303#	   303	   304#	   304	   305#
	   305	   306#	   306	   307#	   307	   308#	   308	   309#	   309	   310#	   310	   311#	   311	   312#
	   312	   313#	   313	   314#	   314	   315#	   315	   316#	   316	   317#	   317	   318#	   318	   319#
	   319	   320#	   320	   321#	   321	   322#	   322	   323#	   323	   324#	   324	   325#	   325	   326#
	   326	   327#	   327	   328#	   328	   329#	   329	   330#	   330	   331#	   331	   332#	   332	   333#
	   333	   334#	   334	   335#	   335	   336#	   336	   337#	   337	   338#	   338	   339#	   339	   340#
	   340	   341#	   341	   342#	   342	   343#	   343	   344#	   344	   345#	   345	   346#	   346	   347#
	   347	   348#	   348	   349#	   349	   350#	   350	   351#	   351	   352#	   352	   353#	   353	   354#
	   354	   355#	   355	   356#	   356	   357#	   357	   358#	   358	   359#	   359	   360#	   360	   361#
	   361	   362#	   362	   363#	   363	   364#	   364	   365#	   365	   366#	   366	   367#	   367	   368#
MASTER CREF  2-MAR-81 21:55
        SYMBOL CROSS REFERENCE

ZZ1	RCDATE	   368	   369#	   369	   370#	   370	   371#	   371	   372#	   372	   373#	   373	   374#	   374
	   375#	   375	   376#	   376	   377#	   377	   378#	   378	   379#	   379	   380#	   380	   381#	   381
	   382#	   382	   383#	   383	   384#	   384	   385#	   385	   386#	   386	   387#	   387	   388#	   388
	   389#	   389	   390#	   390	   391#	   391	   392#	   392	   393#	   393	   394#	   394	   395#	   395
	   396#	   396	   397#	   397	   398#	   398	   399#	   399	   400#	   400	   401#	   401	   402#	   402
	   403#	   403	   404#	   404	   405#	   405	   406#	   406	   407#	   407	   408#	   408	   409#	   409
	   410#	   410	   411#	   411	   412#	   412	   413#	   413	   414#	   414	   415#	   415	   416#	   416
	   417#	   417	   418#	   418	   419#	   419	   420#	   420	   421#	   421	   422#	   422	   423#	   423
	   424#	   424	   425#	   425	   426#	   426	   427#	   427	   428#	   428	   429#	   429	   430#	   430
	   431#	   431	   432#	   432	   433#	   433	   434#	   434	   435#	   435	   436#	   436	   437#	   437
	   438#	   438	   439#	   439	   440#	   440	   441#	   441	   442#	   442	   443#	   443	   444#	   444
	   445#	   445	   446#	   446	   447#	   447	   448#	   448
ZZ1	RMAIN	   337#	   337	   338#	   338	   339#	   339	   340#	   340	   341#	   341	   342#	   342	   343#
	   343	   344#	   344	   345#	   345	   346#	   346	   347#	   347	   348#	   348	   349#	   349	   350#
	   350	   351#	   351	   352#	   352	   353#	   353	   354#	   354	   355#	   355	   356#	   356	   357#
	   357	   358#	   358	   359#	   359	   360#	   360	   361#	   361	   362#	   362	   363#	   363	   364#
	   364	   365#	   365	   366#	   366	   367#	   367	   368#	   368	   369#	   369	   370#	   370	   371#
	   371	   372#	   372	   385#	   385	   386#	   386	   387#	   387	   388#	   388	   389#	   389	   390#
	   390	   391#	   391	   392#	   392	   393#	   393	   394#	   394	   395#	   395	   396#	   396	   397#
	   397	   398#	   398	   399#	   399	   405#	   405	   406#	   406	   407#	   407	   408#	   408	   409#
	   409	   410#	   410	   411#	   411	   412#	   412	   413#	   413	   414#	   414	   415#	   415	   416#
	   416	   417#	   417	   418#	   418	   419#	   419	   420#	   420	   421#	   421	   422#	   422	   423#
	   423	   424#	   424	   425#	   425	   426#	   426	   427#	   427	   428#	   428	   437#	   437	   438#
	   438	   439#	   439	   440#	   440	   441#	   441	   442#	   442	   443#	   443	   444#	   444	   445#
	   445	   449#	   449	   450#	   450	   451#	   451
MASTER CREF  2-MAR-81 21:55
        MACRO/OPDEF CROSS REFERENCE

BUFER	2	   111#	   122	   128	   134	   140
CAT	2	   109#	   124	   130	   136	   142	   147
CMD0	RMAIN	   267#	   332	   337	   349	   361	   373
CMD1	RMAIN	   282#	   333	   385	   390	   395	   400
CMD2	RMAIN	   290#	   334	   405	   413	   421	   429
CMD3	RMAIN	   301#	   335	   437	   440	   443	   446
CMD4	RMAIN	   307#	   336	   449	   450	   451	   452
CMDIT	RMAIN	   326#	   331
CMDR	RMAIN	   311#	   332	   333	   334	   335	   336
CMDR1	RMAIN	   319#	   337	   385	   405	   437	   449
DATE	RCDATE	   617
DATEB	RCDATE	   163#	   236	   307	   378	   452
EXIT	RCDATE	   742
EXIT	RMAIN	   151	   475
EXIT	2	   163	   185	   258	   262
GETLCH	RDATE	   676
IDATE	RDATE	   266#	   415	   447	   469	   537	   548	   609	   624	   636	   644	   655	   660
MDATE	RDATE	   262#	   426	   542	   559	   562	   566	   649
MSIZE	RCDATE	   563#	   571	   603
MSTIME	RCDATE	  1479
MSTIME	RDATE	   804
OUTCHI	RCDATE	   634	   637	  1496	  1497
OUTCHI	RDATE	  1044	  1046	  1049	  1051	  1056	  1059	  1072
OUTCHI	RRMD	   387
OUTCHR	RCDATE	   645
OUTCHR	RCOM	    80	    97	   107
OUTCHR	RDATE	  1061
OUTSTR	RCDATE	   740	  1498	  1499	  1502
OUTSTR	RCMAL	   128	   129	   130	   143
OUTSTR	RDATE	   147	   163	   200	   250	   275	   286	   290	   308	   345	   349	   353	   378	   400
	   404	   438	   571	   673	   681	   687	   704	   712	   758	   761	   858	   872	   875	   878
	   881	   883	   887	   889	   893	   901	   903	   908	   910	   923	   925	   927	   932	   939
	   942	   945	   952	   956	   965	   972	   976	   979	   983	   986	   989	   992	   995	   999
	  1002	  1005	  1008	  1011	  1027	  1030	  1033	  1036	  1063	  1069	  1073	  1075	  1076	  1089
	  1108	  1113	  1130	  1137	  1142	  1146	  1165	  1168	  1193	  1201	  1283
OUTSTR	RMAIN	   158	   195	   200	   201	   229	   243	   264	   488
OUTSTR	RMAL	    84	   109	   113	   176	   177	   185	   198	   206
OUTSTR	RRMD	   165	   206	   218	   219	   227	   261	   263	   272	   297	   348	   349	   350	   363
	   383	   409	   415	   426
OUTSTR	2	   161	   183	   256	   260
RESET	RMAIN	   145
SDATE	RDATE	   258#	   281	   297	   314	   324	   341	   360	   373	   386	   391	   416	   424	   427
	   448	   470	   482	   485	   538	   543	   549	   557	   560	   563	   567	   610	   625	   637
	   645	   650	   656	   661
SKPINC	RMAIN	   156
SLEEP	2	   239
SPC	RDATE	   128#	   135	   142
TABLE	RCDATE	    60#	   234
TABLE	RCMAL	    60#
TABLE	RCOM	    60#
MASTER CREF  2-MAR-81 21:55
        MACRO/OPDEF CROSS REFERENCE

TABLE	RDATE	    60#
TABLE	RMAIN	    60#	   337	   385	   405	   437	   449
TABLE	RMAL	    60#
TABLE	RRMD	    60#
TABLE	RSCAN	    60#
TABLE	2	    60#
WRD	RCDATE	    53#	   236	   237	   238	   239	   240	   241	   242	   243	   244	   245	   246	   247
	   248	   249	   250	   251	   252	   253	   254	   255	   256	   257	   258	   259	   260	   261
	   262	   263	   264	   265	   266	   267	   268	   269	   270	   271	   272	   273	   274	   275
	   276	   277	   278	   279	   280	   281	   282	   283	   284	   285	   286	   287	   288	   289
	   290	   291	   292	   293	   294	   295	   296	   297	   298	   299	   300	   301	   302	   303
	   304	   305	   306	   307	   308	   309	   310	   311	   312	   313	   314	   315	   316	   317
	   318	   319	   320	   321	   322	   323	   324	   325	   326	   327	   328	   329	   330	   331
	   332	   333	   334	   335	   336	   337	   338	   339	   340	   341	   342	   343	   344	   345
	   346	   347	   348	   349	   350	   351	   352	   353	   354	   355	   356	   357	   358	   359
	   360	   361	   362	   363	   364	   365	   366	   367	   368	   369	   370	   371	   372	   373
	   374	   375	   376	   377	   378	   379	   380	   381	   382	   383	   384	   385	   386	   387
	   388	   389	   390	   391	   392	   393	   394	   395	   396	   397	   398	   399	   400	   401
	   402	   403	   404	   405	   406	   407	   408	   409	   410	   411	   412	   413	   414	   415
	   416	   417	   418	   419	   420	   421	   422	   423	   424	   425	   426	   427	   428	   429
	   430	   431	   432	   433	   434	   435	   436	   437	   438	   439	   440	   441	   442	   443
	   444	   445	   446	   447	   448
WRD	RCMAL	    53#
WRD	RCOM	    53#
WRD	RDATE	    53#
WRD	RMAIN	    53#	   337	   338	   339	   340	   341	   342	   343	   344	   345	   346	   347	   348
	   349	   350	   351	   352	   353	   354	   355	   356	   357	   358	   359	   360	   361	   362
	   363	   364	   365	   366	   367	   368	   369	   370	   371	   372	   385	   386	   387	   388
	   389	   390	   391	   392	   393	   394	   395	   396	   397	   398	   399	   405	   406	   407
	   408	   409	   410	   411	   412	   413	   414	   415	   416	   417	   418	   419	   420	   421
	   422	   423	   424	   425	   426	   427	   428	   437	   438	   439	   440	   441	   442	   443
	   444	   445	   449	   450	   451
WRD	RMAL	    53#
WRD	RRMD	    53#
WRD	RSCAN	    53#
WRD	2	    53#
X	RCDATE	   235#	   236	   237	   238	   239	   240	   241	   242	   243	   244	   245	   246	   247
	   248	   249	   250	   251	   252	   253	   254	   255	   256	   257	   258	   259	   260	   261
	   262	   263	   264	   265	   266	   267	   268	   269	   270	   271	   272	   273	   274	   275
	   276	   277	   278	   279	   280	   281	   282	   283	   284	   285	   286	   287	   288	   289
	   290	   291	   292	   293	   294	   295	   296	   297	   298	   299	   300	   301	   302	   303
	   304	   305	   306	   307#	   307	   308	   309	   310	   311	   312	   313	   314	   315	   316
	   317	   318	   319	   320	   321	   322	   323	   324	   325	   326	   327	   328	   329	   330
	   331	   332	   333	   334	   335	   336	   337	   338	   339	   340	   341	   342	   343	   344
	   345	   346	   347	   348	   349	   350	   351	   352	   353	   354	   355	   356	   357	   358
	   359	   360	   361	   362	   363	   364	   365	   366	   367	   368	   369	   370	   371	   372
	   373	   374	   375	   376	   377	   378#	   378	   379	   380	   381	   382	   383	   384	   385
	   386	   387	   388	   389	   390	   391	   392	   393	   394	   395	   396	   397	   398	   399
	   400	   401	   402	   403	   404	   405	   406	   407	   408	   409	   410	   411	   412	   413
	   414	   415	   416	   417	   418	   419	   420	   421	   422	   423	   424	   425	   426	   427
MASTER CREF  2-MAR-81 21:55
        MACRO/OPDEF CROSS REFERENCE

X	RCDATE	   428	   429	   430	   431	   432	   433	   434	   435	   436	   437	   438	   439	   440
	   441	   442	   443	   444	   445	   446	   447	   448	   451#	   452	   453	   454	   455	   456
	   457	   458	   459	   460	   461	   462	   463	   464	   465	   466	   467	   468	   469	   470
	   471	   472	   473	   474	   475	   476	   477	   478	   479	   480	   481	   482	   483	   484
	   485	   486	   487	   488	   489	   490	   491	   492	   493	   494	   495	   496	   497	   498
	   499	   500	   501	   502	   503	   504	   505	   506	   507	   508	   509	   510	   511	   512
	   513	   514	   515	   516	   517	   518	   519	   520	   521	   522	   566#	   571	   586	   601#
	   603
X	RDATE	   133#	   135	   136	   137	   141#	   142	   143	   144
X	RMAIN	   332#	   332	   333#	   333	   334#	   334	   335#	   335	   336#	   336	   337#	   337	   338
	   339	   340	   341	   342	   343	   344	   345	   346	   347	   348	   349#	   349	   350	   351
	   352	   353	   354	   355	   356	   357	   358	   359	   360	   361#	   361	   362	   363	   364
	   365	   366	   367	   368	   369	   370	   371	   372	   373#	   373	   374	   375	   376	   377
	   378	   379	   380	   381	   382	   383	   384	   385#	   385	   386	   387	   388	   389	   390#
	   390	   391	   392	   393	   394	   395#	   395	   396	   397	   398	   399	   400#	   400	   401
	   402	   403	   404	   405#	   405	   406	   407	   408	   409	   410	   411	   412	   413#	   413
	   414	   415	   416	   417	   418	   419	   420	   421#	   421	   422	   423	   424	   425	   426
	   427	   428	   429#	   429	   430	   431	   432	   433	   434	   435	   436	   437#	   437	   438
	   439	   440#	   440	   441	   442	   443#	   443	   444	   445	   446#	   446	   447	   448	   449#
	   449	   450#	   450	   451#	   451	   452#	   452
  h(mk